
Phone_Main.elf:     file format elf32-littlearm

Sections:
Idx Name          Size      VMA       LMA       File off  Algn
  0 .isr_vector   0000010c  08000000  08000000  00010000  2**0
                  CONTENTS, ALLOC, LOAD, READONLY, DATA
  1 .text         000043c4  08000110  08000110  00010110  2**4
                  CONTENTS, ALLOC, LOAD, READONLY, CODE
  2 .rodata       00000588  080044d4  080044d4  000144d4  2**2
                  CONTENTS, ALLOC, LOAD, READONLY, DATA
  3 .ARM.extab    00000000  08004a5c  08004a5c  000201e4  2**0
                  CONTENTS
  4 .ARM          00000000  08004a5c  08004a5c  000201e4  2**0
                  CONTENTS
  5 .preinit_array 00000000  08004a5c  08004a5c  000201e4  2**0
                  CONTENTS, ALLOC, LOAD, DATA
  6 .init_array   00000004  08004a5c  08004a5c  00014a5c  2**2
                  CONTENTS, ALLOC, LOAD, DATA
  7 .fini_array   00000004  08004a60  08004a60  00014a60  2**2
                  CONTENTS, ALLOC, LOAD, DATA
  8 .data         000001e4  20000000  08004a64  00020000  2**2
                  CONTENTS, ALLOC, LOAD, DATA
  9 .bss          00002800  200001e4  08004c48  000201e4  2**2
                  ALLOC
 10 ._user_heap_stack 00001404  200029e4  08004c48  000229e4  2**0
                  ALLOC
 11 .ARM.attributes 00000029  00000000  00000000  000201e4  2**0
                  CONTENTS, READONLY
 12 .comment      0000007b  00000000  00000000  0002020d  2**0
                  CONTENTS, READONLY
 13 .debug_frame  00000a68  00000000  00000000  00020288  2**2
                  CONTENTS, READONLY, DEBUGGING

Disassembly of section .text:

08000110 <__do_global_dtors_aux>:
 8000110:	b510      	push	{r4, lr}
 8000112:	4c05      	ldr	r4, [pc, #20]	; (8000128 <__do_global_dtors_aux+0x18>)
 8000114:	7823      	ldrb	r3, [r4, #0]
 8000116:	b933      	cbnz	r3, 8000126 <__do_global_dtors_aux+0x16>
 8000118:	4b04      	ldr	r3, [pc, #16]	; (800012c <__do_global_dtors_aux+0x1c>)
 800011a:	b113      	cbz	r3, 8000122 <__do_global_dtors_aux+0x12>
 800011c:	4804      	ldr	r0, [pc, #16]	; (8000130 <__do_global_dtors_aux+0x20>)
 800011e:	f3af 8000 	nop.w
 8000122:	2301      	movs	r3, #1
 8000124:	7023      	strb	r3, [r4, #0]
 8000126:	bd10      	pop	{r4, pc}
 8000128:	200001e4 	.word	0x200001e4
 800012c:	00000000 	.word	0x00000000
 8000130:	080044bc 	.word	0x080044bc

08000134 <frame_dummy>:
 8000134:	b508      	push	{r3, lr}
 8000136:	4b03      	ldr	r3, [pc, #12]	; (8000144 <frame_dummy+0x10>)
 8000138:	b11b      	cbz	r3, 8000142 <frame_dummy+0xe>
 800013a:	4903      	ldr	r1, [pc, #12]	; (8000148 <frame_dummy+0x14>)
 800013c:	4803      	ldr	r0, [pc, #12]	; (800014c <frame_dummy+0x18>)
 800013e:	f3af 8000 	nop.w
 8000142:	bd08      	pop	{r3, pc}
 8000144:	00000000 	.word	0x00000000
 8000148:	200001e8 	.word	0x200001e8
 800014c:	080044bc 	.word	0x080044bc

08000150 <strcmp>:
 8000150:	f810 2b01 	ldrb.w	r2, [r0], #1
 8000154:	f811 3b01 	ldrb.w	r3, [r1], #1
 8000158:	2a01      	cmp	r2, #1
 800015a:	bf28      	it	cs
 800015c:	429a      	cmpcs	r2, r3
 800015e:	d0f7      	beq.n	8000150 <strcmp>
 8000160:	1ad0      	subs	r0, r2, r3
 8000162:	4770      	bx	lr

08000164 <strlen>:
 8000164:	4603      	mov	r3, r0
 8000166:	f813 2b01 	ldrb.w	r2, [r3], #1
 800016a:	2a00      	cmp	r2, #0
 800016c:	d1fb      	bne.n	8000166 <strlen+0x2>
 800016e:	1a18      	subs	r0, r3, r0
 8000170:	3801      	subs	r0, #1
 8000172:	4770      	bx	lr

08000174 <vApplicationGetIdleTaskMemory>:
 8000174:	4b03      	ldr	r3, [pc, #12]	; (8000184 <vApplicationGetIdleTaskMemory+0x10>)
 8000176:	6003      	str	r3, [r0, #0]
 8000178:	4b03      	ldr	r3, [pc, #12]	; (8000188 <vApplicationGetIdleTaskMemory+0x14>)
 800017a:	600b      	str	r3, [r1, #0]
 800017c:	2380      	movs	r3, #128	; 0x80
 800017e:	6013      	str	r3, [r2, #0]
 8000180:	4770      	bx	lr
 8000182:	bf00      	nop
 8000184:	20000400 	.word	0x20000400
 8000188:	20000200 	.word	0x20000200

0800018c <MX_GPIO_Init>:
 800018c:	b510      	push	{r4, lr}
 800018e:	2400      	movs	r4, #0
 8000190:	b088      	sub	sp, #32
 8000192:	e9cd 4406 	strd	r4, r4, [sp, #24]
 8000196:	4b17      	ldr	r3, [pc, #92]	; (80001f4 <MX_GPIO_Init+0x68>)
 8000198:	a904      	add	r1, sp, #16
 800019a:	699a      	ldr	r2, [r3, #24]
 800019c:	4816      	ldr	r0, [pc, #88]	; (80001f8 <MX_GPIO_Init+0x6c>)
 800019e:	f042 0220 	orr.w	r2, r2, #32
 80001a2:	619a      	str	r2, [r3, #24]
 80001a4:	699a      	ldr	r2, [r3, #24]
 80001a6:	f002 0220 	and.w	r2, r2, #32
 80001aa:	9201      	str	r2, [sp, #4]
 80001ac:	9a01      	ldr	r2, [sp, #4]
 80001ae:	699a      	ldr	r2, [r3, #24]
 80001b0:	f042 0204 	orr.w	r2, r2, #4
 80001b4:	619a      	str	r2, [r3, #24]
 80001b6:	699a      	ldr	r2, [r3, #24]
 80001b8:	f002 0204 	and.w	r2, r2, #4
 80001bc:	9202      	str	r2, [sp, #8]
 80001be:	9a02      	ldr	r2, [sp, #8]
 80001c0:	699a      	ldr	r2, [r3, #24]
 80001c2:	f042 0208 	orr.w	r2, r2, #8
 80001c6:	619a      	str	r2, [r3, #24]
 80001c8:	2201      	movs	r2, #1
 80001ca:	699b      	ldr	r3, [r3, #24]
 80001cc:	f003 0308 	and.w	r3, r3, #8
 80001d0:	9303      	str	r3, [sp, #12]
 80001d2:	9b03      	ldr	r3, [sp, #12]
 80001d4:	4b09      	ldr	r3, [pc, #36]	; (80001fc <MX_GPIO_Init+0x70>)
 80001d6:	e9cd 2304 	strd	r2, r3, [sp, #16]
 80001da:	f001 fabb 	bl	8001754 <HAL_GPIO_Init>
 80001de:	4622      	mov	r2, r4
 80001e0:	4621      	mov	r1, r4
 80001e2:	2006      	movs	r0, #6
 80001e4:	f001 fa2c 	bl	8001640 <HAL_NVIC_SetPriority>
 80001e8:	2006      	movs	r0, #6
 80001ea:	f001 fa5d 	bl	80016a8 <HAL_NVIC_EnableIRQ>
 80001ee:	b008      	add	sp, #32
 80001f0:	bd10      	pop	{r4, pc}
 80001f2:	bf00      	nop
 80001f4:	40021000 	.word	0x40021000
 80001f8:	40010c00 	.word	0x40010c00
 80001fc:	10210000 	.word	0x10210000

08000200 <call_task_func>:
 8000200:	e92d 4880 	stmdb	sp!, {r7, fp, lr}
 8000204:	b0d5      	sub	sp, #340	; 0x154
 8000206:	2240      	movs	r2, #64	; 0x40
 8000208:	2100      	movs	r1, #0
 800020a:	a844      	add	r0, sp, #272	; 0x110
 800020c:	f002 ffd9 	bl	80031c2 <memset>
 8000210:	4aba      	ldr	r2, [pc, #744]	; (80004fc <call_task_func+0x2fc>)
 8000212:	ab05      	add	r3, sp, #20
 8000214:	6810      	ldr	r0, [r2, #0]
 8000216:	6851      	ldr	r1, [r2, #4]
 8000218:	8912      	ldrh	r2, [r2, #8]
 800021a:	c303      	stmia	r3!, {r0, r1}
 800021c:	801a      	strh	r2, [r3, #0]
 800021e:	4bb8      	ldr	r3, [pc, #736]	; (8000500 <call_task_func+0x300>)
 8000220:	889a      	ldrh	r2, [r3, #4]
 8000222:	6818      	ldr	r0, [r3, #0]
 8000224:	f8ad 2010 	strh.w	r2, [sp, #16]
 8000228:	aa1c      	add	r2, sp, #112	; 0x70
 800022a:	4615      	mov	r5, r2
 800022c:	799b      	ldrb	r3, [r3, #6]
 800022e:	9003      	str	r0, [sp, #12]
 8000230:	f88d 3012 	strb.w	r3, [sp, #18]
 8000234:	4bb3      	ldr	r3, [pc, #716]	; (8000504 <call_task_func+0x304>)
 8000236:	f103 0620 	add.w	r6, r3, #32
 800023a:	4614      	mov	r4, r2
 800023c:	6818      	ldr	r0, [r3, #0]
 800023e:	6859      	ldr	r1, [r3, #4]
 8000240:	3308      	adds	r3, #8
 8000242:	c403      	stmia	r4!, {r0, r1}
 8000244:	42b3      	cmp	r3, r6
 8000246:	4622      	mov	r2, r4
 8000248:	d1f7      	bne.n	800023a <call_task_func+0x3a>
 800024a:	aa3a      	add	r2, sp, #232	; 0xe8
 800024c:	4616      	mov	r6, r2
 800024e:	6818      	ldr	r0, [r3, #0]
 8000250:	889b      	ldrh	r3, [r3, #4]
 8000252:	6020      	str	r0, [r4, #0]
 8000254:	80a3      	strh	r3, [r4, #4]
 8000256:	4bac      	ldr	r3, [pc, #688]	; (8000508 <call_task_func+0x308>)
 8000258:	f103 0728 	add.w	r7, r3, #40	; 0x28
 800025c:	4614      	mov	r4, r2
 800025e:	6818      	ldr	r0, [r3, #0]
 8000260:	6859      	ldr	r1, [r3, #4]
 8000262:	3308      	adds	r3, #8
 8000264:	c403      	stmia	r4!, {r0, r1}
 8000266:	42bb      	cmp	r3, r7
 8000268:	4622      	mov	r2, r4
 800026a:	d1f7      	bne.n	800025c <call_task_func+0x5c>
 800026c:	4ba7      	ldr	r3, [pc, #668]	; (800050c <call_task_func+0x30c>)
 800026e:	aa0e      	add	r2, sp, #56	; 0x38
 8000270:	f103 0718 	add.w	r7, r3, #24
 8000274:	4614      	mov	r4, r2
 8000276:	6818      	ldr	r0, [r3, #0]
 8000278:	6859      	ldr	r1, [r3, #4]
 800027a:	3308      	adds	r3, #8
 800027c:	c403      	stmia	r4!, {r0, r1}
 800027e:	42bb      	cmp	r3, r7
 8000280:	4622      	mov	r2, r4
 8000282:	d1f7      	bne.n	8000274 <call_task_func+0x74>
 8000284:	aa30      	add	r2, sp, #192	; 0xc0
 8000286:	4617      	mov	r7, r2
 8000288:	881b      	ldrh	r3, [r3, #0]
 800028a:	8023      	strh	r3, [r4, #0]
 800028c:	4ba0      	ldr	r3, [pc, #640]	; (8000510 <call_task_func+0x310>)
 800028e:	f103 0c20 	add.w	ip, r3, #32
 8000292:	4614      	mov	r4, r2
 8000294:	6818      	ldr	r0, [r3, #0]
 8000296:	6859      	ldr	r1, [r3, #4]
 8000298:	3308      	adds	r3, #8
 800029a:	c403      	stmia	r4!, {r0, r1}
 800029c:	4563      	cmp	r3, ip
 800029e:	4622      	mov	r2, r4
 80002a0:	d1f7      	bne.n	8000292 <call_task_func+0x92>
 80002a2:	aa26      	add	r2, sp, #152	; 0x98
 80002a4:	4690      	mov	r8, r2
 80002a6:	6818      	ldr	r0, [r3, #0]
 80002a8:	8899      	ldrh	r1, [r3, #4]
 80002aa:	799b      	ldrb	r3, [r3, #6]
 80002ac:	6020      	str	r0, [r4, #0]
 80002ae:	71a3      	strb	r3, [r4, #6]
 80002b0:	4b98      	ldr	r3, [pc, #608]	; (8000514 <call_task_func+0x314>)
 80002b2:	80a1      	strh	r1, [r4, #4]
 80002b4:	f103 0c20 	add.w	ip, r3, #32
 80002b8:	4614      	mov	r4, r2
 80002ba:	6818      	ldr	r0, [r3, #0]
 80002bc:	6859      	ldr	r1, [r3, #4]
 80002be:	3308      	adds	r3, #8
 80002c0:	c403      	stmia	r4!, {r0, r1}
 80002c2:	4563      	cmp	r3, ip
 80002c4:	4622      	mov	r2, r4
 80002c6:	d1f7      	bne.n	80002b8 <call_task_func+0xb8>
 80002c8:	6818      	ldr	r0, [r3, #0]
 80002ca:	889b      	ldrh	r3, [r3, #4]
 80002cc:	6020      	str	r0, [r4, #0]
 80002ce:	80a3      	strh	r3, [r4, #4]
 80002d0:	4b91      	ldr	r3, [pc, #580]	; (8000518 <call_task_func+0x318>)
 80002d2:	aa08      	add	r2, sp, #32
 80002d4:	6818      	ldr	r0, [r3, #0]
 80002d6:	889b      	ldrh	r3, [r3, #4]
 80002d8:	9001      	str	r0, [sp, #4]
 80002da:	f8ad 3008 	strh.w	r3, [sp, #8]
 80002de:	4b8f      	ldr	r3, [pc, #572]	; (800051c <call_task_func+0x31c>)
 80002e0:	f103 0c10 	add.w	ip, r3, #16
 80002e4:	4614      	mov	r4, r2
 80002e6:	6818      	ldr	r0, [r3, #0]
 80002e8:	6859      	ldr	r1, [r3, #4]
 80002ea:	3308      	adds	r3, #8
 80002ec:	c403      	stmia	r4!, {r0, r1}
 80002ee:	4563      	cmp	r3, ip
 80002f0:	4622      	mov	r2, r4
 80002f2:	d1f7      	bne.n	80002e4 <call_task_func+0xe4>
 80002f4:	6818      	ldr	r0, [r3, #0]
 80002f6:	889b      	ldrh	r3, [r3, #4]
 80002f8:	6020      	str	r0, [r4, #0]
 80002fa:	80a3      	strh	r3, [r4, #4]
 80002fc:	4b88      	ldr	r3, [pc, #544]	; (8000520 <call_task_func+0x320>)
 80002fe:	aa15      	add	r2, sp, #84	; 0x54
 8000300:	f103 0c18 	add.w	ip, r3, #24
 8000304:	4614      	mov	r4, r2
 8000306:	6818      	ldr	r0, [r3, #0]
 8000308:	6859      	ldr	r1, [r3, #4]
 800030a:	3308      	adds	r3, #8
 800030c:	c403      	stmia	r4!, {r0, r1}
 800030e:	4563      	cmp	r3, ip
 8000310:	4622      	mov	r2, r4
 8000312:	d1f7      	bne.n	8000304 <call_task_func+0x104>
 8000314:	f8df 9230 	ldr.w	r9, [pc, #560]	; 8000548 <call_task_func+0x348>
 8000318:	881b      	ldrh	r3, [r3, #0]
 800031a:	46cb      	mov	fp, r9
 800031c:	8023      	strh	r3, [r4, #0]
 800031e:	4c81      	ldr	r4, [pc, #516]	; (8000524 <call_task_func+0x324>)
 8000320:	f899 3000 	ldrb.w	r3, [r9]
 8000324:	2b07      	cmp	r3, #7
 8000326:	d8fd      	bhi.n	8000324 <call_task_func+0x124>
 8000328:	a201      	add	r2, pc, #4	; (adr r2, 8000330 <call_task_func+0x130>)
 800032a:	f852 f023 	ldr.w	pc, [r2, r3, lsl #2]
 800032e:	bf00      	nop
 8000330:	080004e9 	.word	0x080004e9
 8000334:	08000351 	.word	0x08000351
 8000338:	08000325 	.word	0x08000325
 800033c:	08000325 	.word	0x08000325
 8000340:	080003ff 	.word	0x080003ff
 8000344:	080004a3 	.word	0x080004a3
 8000348:	08000551 	.word	0x08000551
 800034c:	08000473 	.word	0x08000473
 8000350:	f8df a1f8 	ldr.w	sl, [pc, #504]	; 800054c <call_task_func+0x34c>
 8000354:	f44f 7280 	mov.w	r2, #256	; 0x100
 8000358:	2100      	movs	r1, #0
 800035a:	4872      	ldr	r0, [pc, #456]	; (8000524 <call_task_func+0x324>)
 800035c:	f002 ff31 	bl	80031c2 <memset>
 8000360:	4650      	mov	r0, sl
 8000362:	f7ff feff 	bl	8000164 <strlen>
 8000366:	2300      	movs	r3, #0
 8000368:	4450      	add	r0, sl
 800036a:	f800 3c01 	strb.w	r3, [r0, #-1]
 800036e:	4b6e      	ldr	r3, [pc, #440]	; (8000528 <call_task_func+0x328>)
 8000370:	781b      	ldrb	r3, [r3, #0]
 8000372:	bb3b      	cbnz	r3, 80003c4 <call_task_func+0x1c4>
 8000374:	f10a 0208 	add.w	r2, sl, #8
 8000378:	496c      	ldr	r1, [pc, #432]	; (800052c <call_task_func+0x32c>)
 800037a:	a844      	add	r0, sp, #272	; 0x110
 800037c:	f002 ff2a 	bl	80031d4 <siprintf>
 8000380:	a844      	add	r0, sp, #272	; 0x110
 8000382:	f7ff feef 	bl	8000164 <strlen>
 8000386:	f44f 73fa 	mov.w	r3, #500	; 0x1f4
 800038a:	b282      	uxth	r2, r0
 800038c:	a944      	add	r1, sp, #272	; 0x110
 800038e:	4868      	ldr	r0, [pc, #416]	; (8000530 <call_task_func+0x330>)
 8000390:	f001 ff56 	bl	8002240 <HAL_UART_Transmit>
 8000394:	4621      	mov	r1, r4
 8000396:	f241 3388 	movw	r3, #5000	; 0x1388
 800039a:	f44f 7280 	mov.w	r2, #256	; 0x100
 800039e:	4864      	ldr	r0, [pc, #400]	; (8000530 <call_task_func+0x330>)
 80003a0:	f001 ffa5 	bl	80022ee <HAL_UART_Receive>
 80003a4:	4963      	ldr	r1, [pc, #396]	; (8000534 <call_task_func+0x334>)
 80003a6:	4620      	mov	r0, r4
 80003a8:	f002 ff75 	bl	8003296 <strstr>
 80003ac:	2800      	cmp	r0, #0
 80003ae:	d05e      	beq.n	800046e <call_task_func+0x26e>
 80003b0:	78a3      	ldrb	r3, [r4, #2]
 80003b2:	2b4f      	cmp	r3, #79	; 0x4f
 80003b4:	d002      	beq.n	80003bc <call_task_func+0x1bc>
 80003b6:	78e3      	ldrb	r3, [r4, #3]
 80003b8:	2b4f      	cmp	r3, #79	; 0x4f
 80003ba:	d158      	bne.n	800046e <call_task_func+0x26e>
 80003bc:	2304      	movs	r3, #4
 80003be:	f889 3000 	strb.w	r3, [r9]
 80003c2:	e7ad      	b.n	8000320 <call_task_func+0x120>
 80003c4:	2b01      	cmp	r3, #1
 80003c6:	d1ab      	bne.n	8000320 <call_task_func+0x120>
 80003c8:	4652      	mov	r2, sl
 80003ca:	495b      	ldr	r1, [pc, #364]	; (8000538 <call_task_func+0x338>)
 80003cc:	a844      	add	r0, sp, #272	; 0x110
 80003ce:	f002 ff01 	bl	80031d4 <siprintf>
 80003d2:	a808      	add	r0, sp, #32
 80003d4:	f7ff fec6 	bl	8000164 <strlen>
 80003d8:	f44f 7396 	mov.w	r3, #300	; 0x12c
 80003dc:	b282      	uxth	r2, r0
 80003de:	a908      	add	r1, sp, #32
 80003e0:	4856      	ldr	r0, [pc, #344]	; (800053c <call_task_func+0x33c>)
 80003e2:	f001 ff2d 	bl	8002240 <HAL_UART_Transmit>
 80003e6:	a844      	add	r0, sp, #272	; 0x110
 80003e8:	f7ff febc 	bl	8000164 <strlen>
 80003ec:	f44f 7396 	mov.w	r3, #300	; 0x12c
 80003f0:	b282      	uxth	r2, r0
 80003f2:	a944      	add	r1, sp, #272	; 0x110
 80003f4:	4851      	ldr	r0, [pc, #324]	; (800053c <call_task_func+0x33c>)
 80003f6:	f001 ff23 	bl	8002240 <HAL_UART_Transmit>
 80003fa:	2305      	movs	r3, #5
 80003fc:	e7df      	b.n	80003be <call_task_func+0x1be>
 80003fe:	f44f 7280 	mov.w	r2, #256	; 0x100
 8000402:	2100      	movs	r1, #0
 8000404:	4847      	ldr	r0, [pc, #284]	; (8000524 <call_task_func+0x324>)
 8000406:	f002 fedc 	bl	80031c2 <memset>
 800040a:	a805      	add	r0, sp, #20
 800040c:	f7ff feaa 	bl	8000164 <strlen>
 8000410:	23c8      	movs	r3, #200	; 0xc8
 8000412:	b282      	uxth	r2, r0
 8000414:	a905      	add	r1, sp, #20
 8000416:	4846      	ldr	r0, [pc, #280]	; (8000530 <call_task_func+0x330>)
 8000418:	f001 ff12 	bl	8002240 <HAL_UART_Transmit>
 800041c:	4941      	ldr	r1, [pc, #260]	; (8000524 <call_task_func+0x324>)
 800041e:	f44f 73c8 	mov.w	r3, #400	; 0x190
 8000422:	f44f 7280 	mov.w	r2, #256	; 0x100
 8000426:	4842      	ldr	r0, [pc, #264]	; (8000530 <call_task_func+0x330>)
 8000428:	f001 ff61 	bl	80022ee <HAL_UART_Receive>
 800042c:	4944      	ldr	r1, [pc, #272]	; (8000540 <call_task_func+0x340>)
 800042e:	483d      	ldr	r0, [pc, #244]	; (8000524 <call_task_func+0x324>)
 8000430:	f002 ff31 	bl	8003296 <strstr>
 8000434:	b168      	cbz	r0, 8000452 <call_task_func+0x252>
 8000436:	2305      	movs	r3, #5
 8000438:	4630      	mov	r0, r6
 800043a:	f889 3000 	strb.w	r3, [r9]
 800043e:	f7ff fe91 	bl	8000164 <strlen>
 8000442:	f44f 7396 	mov.w	r3, #300	; 0x12c
 8000446:	b282      	uxth	r2, r0
 8000448:	4631      	mov	r1, r6
 800044a:	483c      	ldr	r0, [pc, #240]	; (800053c <call_task_func+0x33c>)
 800044c:	f001 fef8 	bl	8002240 <HAL_UART_Transmit>
 8000450:	e766      	b.n	8000320 <call_task_func+0x120>
 8000452:	4938      	ldr	r1, [pc, #224]	; (8000534 <call_task_func+0x334>)
 8000454:	4620      	mov	r0, r4
 8000456:	f002 ff1e 	bl	8003296 <strstr>
 800045a:	2800      	cmp	r0, #0
 800045c:	f43f af60 	beq.w	8000320 <call_task_func+0x120>
 8000460:	78a3      	ldrb	r3, [r4, #2]
 8000462:	2b4f      	cmp	r3, #79	; 0x4f
 8000464:	d003      	beq.n	800046e <call_task_func+0x26e>
 8000466:	78e3      	ldrb	r3, [r4, #3]
 8000468:	2b4f      	cmp	r3, #79	; 0x4f
 800046a:	f47f af59 	bne.w	8000320 <call_task_func+0x120>
 800046e:	2306      	movs	r3, #6
 8000470:	e7a5      	b.n	80003be <call_task_func+0x1be>
 8000472:	4638      	mov	r0, r7
 8000474:	f7ff fe76 	bl	8000164 <strlen>
 8000478:	f44f 7396 	mov.w	r3, #300	; 0x12c
 800047c:	b282      	uxth	r2, r0
 800047e:	4639      	mov	r1, r7
 8000480:	482e      	ldr	r0, [pc, #184]	; (800053c <call_task_func+0x33c>)
 8000482:	f001 fedd 	bl	8002240 <HAL_UART_Transmit>
 8000486:	a801      	add	r0, sp, #4
 8000488:	f7ff fe6c 	bl	8000164 <strlen>
 800048c:	f44f 7396 	mov.w	r3, #300	; 0x12c
 8000490:	b282      	uxth	r2, r0
 8000492:	a901      	add	r1, sp, #4
 8000494:	4826      	ldr	r0, [pc, #152]	; (8000530 <call_task_func+0x330>)
 8000496:	f001 fed3 	bl	8002240 <HAL_UART_Transmit>
 800049a:	2305      	movs	r3, #5
 800049c:	f88b 3000 	strb.w	r3, [fp]
 80004a0:	e73e      	b.n	8000320 <call_task_func+0x120>
 80004a2:	f44f 7280 	mov.w	r2, #256	; 0x100
 80004a6:	2100      	movs	r1, #0
 80004a8:	4620      	mov	r0, r4
 80004aa:	f002 fe8a 	bl	80031c2 <memset>
 80004ae:	a805      	add	r0, sp, #20
 80004b0:	f7ff fe58 	bl	8000164 <strlen>
 80004b4:	23c8      	movs	r3, #200	; 0xc8
 80004b6:	b282      	uxth	r2, r0
 80004b8:	a905      	add	r1, sp, #20
 80004ba:	481d      	ldr	r0, [pc, #116]	; (8000530 <call_task_func+0x330>)
 80004bc:	f001 fec0 	bl	8002240 <HAL_UART_Transmit>
 80004c0:	f44f 73c8 	mov.w	r3, #400	; 0x190
 80004c4:	f44f 7280 	mov.w	r2, #256	; 0x100
 80004c8:	4621      	mov	r1, r4
 80004ca:	4819      	ldr	r0, [pc, #100]	; (8000530 <call_task_func+0x330>)
 80004cc:	f001 ff0f 	bl	80022ee <HAL_UART_Receive>
 80004d0:	4b15      	ldr	r3, [pc, #84]	; (8000528 <call_task_func+0x328>)
 80004d2:	781b      	ldrb	r3, [r3, #0]
 80004d4:	2b01      	cmp	r3, #1
 80004d6:	d10c      	bne.n	80004f2 <call_task_func+0x2f2>
 80004d8:	491a      	ldr	r1, [pc, #104]	; (8000544 <call_task_func+0x344>)
 80004da:	4620      	mov	r0, r4
 80004dc:	f002 fedb 	bl	8003296 <strstr>
 80004e0:	b910      	cbnz	r0, 80004e8 <call_task_func+0x2e8>
 80004e2:	2306      	movs	r3, #6
 80004e4:	f88b 3000 	strb.w	r3, [fp]
 80004e8:	f44f 70fa 	mov.w	r0, #500	; 0x1f4
 80004ec:	f002 fbb6 	bl	8002c5c <vTaskDelay>
 80004f0:	e716      	b.n	8000320 <call_task_func+0x120>
 80004f2:	2b00      	cmp	r3, #0
 80004f4:	d1f8      	bne.n	80004e8 <call_task_func+0x2e8>
 80004f6:	4912      	ldr	r1, [pc, #72]	; (8000540 <call_task_func+0x340>)
 80004f8:	e7ef      	b.n	80004da <call_task_func+0x2da>
 80004fa:	bf00      	nop
 80004fc:	08004544 	.word	0x08004544
 8000500:	0800454e 	.word	0x0800454e
 8000504:	08004555 	.word	0x08004555
 8000508:	0800457b 	.word	0x0800457b
 800050c:	080045a3 	.word	0x080045a3
 8000510:	080045bd 	.word	0x080045bd
 8000514:	080045e4 	.word	0x080045e4
 8000518:	0800460a 	.word	0x0800460a
 800051c:	08004610 	.word	0x08004610
 8000520:	08004626 	.word	0x08004626
 8000524:	20000456 	.word	0x20000456
 8000528:	20002990 	.word	0x20002990
 800052c:	0800450f 	.word	0x0800450f
 8000530:	20002048 	.word	0x20002048
 8000534:	0800451a 	.word	0x0800451a
 8000538:	0800451d 	.word	0x0800451d
 800053c:	2000294c 	.word	0x2000294c
 8000540:	0800453a 	.word	0x0800453a
 8000544:	08004540 	.word	0x08004540
 8000548:	20000454 	.word	0x20000454
 800054c:	20000556 	.word	0x20000556
 8000550:	f44f 7280 	mov.w	r2, #256	; 0x100
 8000554:	2100      	movs	r1, #0
 8000556:	4620      	mov	r0, r4
 8000558:	f002 fe33 	bl	80031c2 <memset>
 800055c:	a803      	add	r0, sp, #12
 800055e:	f7ff fe01 	bl	8000164 <strlen>
 8000562:	23c8      	movs	r3, #200	; 0xc8
 8000564:	b282      	uxth	r2, r0
 8000566:	a903      	add	r1, sp, #12
 8000568:	4820      	ldr	r0, [pc, #128]	; (80005ec <call_task_func+0x3ec>)
 800056a:	f001 fe69 	bl	8002240 <HAL_UART_Transmit>
 800056e:	f44f 73c8 	mov.w	r3, #400	; 0x190
 8000572:	f44f 7280 	mov.w	r2, #256	; 0x100
 8000576:	4621      	mov	r1, r4
 8000578:	481c      	ldr	r0, [pc, #112]	; (80005ec <call_task_func+0x3ec>)
 800057a:	f001 feb8 	bl	80022ee <HAL_UART_Receive>
 800057e:	4b1c      	ldr	r3, [pc, #112]	; (80005f0 <call_task_func+0x3f0>)
 8000580:	781b      	ldrb	r3, [r3, #0]
 8000582:	b9f3      	cbnz	r3, 80005c2 <call_task_func+0x3c2>
 8000584:	4628      	mov	r0, r5
 8000586:	f7ff fded 	bl	8000164 <strlen>
 800058a:	f44f 7396 	mov.w	r3, #300	; 0x12c
 800058e:	b282      	uxth	r2, r0
 8000590:	4629      	mov	r1, r5
 8000592:	4818      	ldr	r0, [pc, #96]	; (80005f4 <call_task_func+0x3f4>)
 8000594:	f001 fe54 	bl	8002240 <HAL_UART_Transmit>
 8000598:	a80e      	add	r0, sp, #56	; 0x38
 800059a:	f7ff fde3 	bl	8000164 <strlen>
 800059e:	f44f 7396 	mov.w	r3, #300	; 0x12c
 80005a2:	b282      	uxth	r2, r0
 80005a4:	a90e      	add	r1, sp, #56	; 0x38
 80005a6:	4813      	ldr	r0, [pc, #76]	; (80005f4 <call_task_func+0x3f4>)
 80005a8:	f001 fe4a 	bl	8002240 <HAL_UART_Transmit>
 80005ac:	f44f 7280 	mov.w	r2, #256	; 0x100
 80005b0:	2100      	movs	r1, #0
 80005b2:	4811      	ldr	r0, [pc, #68]	; (80005f8 <call_task_func+0x3f8>)
 80005b4:	f002 fe05 	bl	80031c2 <memset>
 80005b8:	2201      	movs	r2, #1
 80005ba:	4b10      	ldr	r3, [pc, #64]	; (80005fc <call_task_func+0x3fc>)
 80005bc:	701a      	strb	r2, [r3, #0]
 80005be:	2300      	movs	r3, #0
 80005c0:	e76c      	b.n	800049c <call_task_func+0x29c>
 80005c2:	2b01      	cmp	r3, #1
 80005c4:	d1f2      	bne.n	80005ac <call_task_func+0x3ac>
 80005c6:	4640      	mov	r0, r8
 80005c8:	f7ff fdcc 	bl	8000164 <strlen>
 80005cc:	f44f 7396 	mov.w	r3, #300	; 0x12c
 80005d0:	b282      	uxth	r2, r0
 80005d2:	4641      	mov	r1, r8
 80005d4:	4807      	ldr	r0, [pc, #28]	; (80005f4 <call_task_func+0x3f4>)
 80005d6:	f001 fe33 	bl	8002240 <HAL_UART_Transmit>
 80005da:	a815      	add	r0, sp, #84	; 0x54
 80005dc:	f7ff fdc2 	bl	8000164 <strlen>
 80005e0:	f44f 7396 	mov.w	r3, #300	; 0x12c
 80005e4:	b282      	uxth	r2, r0
 80005e6:	a915      	add	r1, sp, #84	; 0x54
 80005e8:	e7dd      	b.n	80005a6 <call_task_func+0x3a6>
 80005ea:	bf00      	nop
 80005ec:	20002048 	.word	0x20002048
 80005f0:	20002990 	.word	0x20002990
 80005f4:	2000294c 	.word	0x2000294c
 80005f8:	20000556 	.word	0x20000556
 80005fc:	20000000 	.word	0x20000000

08000600 <message_task_func>:
 8000600:	e92d 41f0 	stmdb	sp!, {r4, r5, r6, r7, r8, lr}
 8000604:	4a40      	ldr	r2, [pc, #256]	; (8000708 <message_task_func+0x108>)
 8000606:	b0bc      	sub	sp, #240	; 0xf0
 8000608:	6810      	ldr	r0, [r2, #0]
 800060a:	6851      	ldr	r1, [r2, #4]
 800060c:	ab01      	add	r3, sp, #4
 800060e:	c303      	stmia	r3!, {r0, r1}
 8000610:	6890      	ldr	r0, [r2, #8]
 8000612:	2100      	movs	r1, #0
 8000614:	6018      	str	r0, [r3, #0]
 8000616:	2240      	movs	r2, #64	; 0x40
 8000618:	a804      	add	r0, sp, #16
 800061a:	4d3c      	ldr	r5, [pc, #240]	; (800070c <message_task_func+0x10c>)
 800061c:	f002 fdd1 	bl	80031c2 <memset>
 8000620:	22a0      	movs	r2, #160	; 0xa0
 8000622:	2100      	movs	r1, #0
 8000624:	a814      	add	r0, sp, #80	; 0x50
 8000626:	f002 fdcc 	bl	80031c2 <memset>
 800062a:	462e      	mov	r6, r5
 800062c:	4c38      	ldr	r4, [pc, #224]	; (8000710 <message_task_func+0x110>)
 800062e:	782b      	ldrb	r3, [r5, #0]
 8000630:	2b01      	cmp	r3, #1
 8000632:	d00a      	beq.n	800064a <message_task_func+0x4a>
 8000634:	d363      	bcc.n	80006fe <message_task_func+0xfe>
 8000636:	2b02      	cmp	r3, #2
 8000638:	d1fa      	bne.n	8000630 <message_task_func+0x30>
 800063a:	f44f 7280 	mov.w	r2, #256	; 0x100
 800063e:	2100      	movs	r1, #0
 8000640:	4834      	ldr	r0, [pc, #208]	; (8000714 <message_task_func+0x114>)
 8000642:	f002 fdbe 	bl	80031c2 <memset>
 8000646:	2300      	movs	r3, #0
 8000648:	e057      	b.n	80006fa <message_task_func+0xfa>
 800064a:	f44f 7280 	mov.w	r2, #256	; 0x100
 800064e:	2100      	movs	r1, #0
 8000650:	4620      	mov	r0, r4
 8000652:	f002 fdb6 	bl	80031c2 <memset>
 8000656:	4930      	ldr	r1, [pc, #192]	; (8000718 <message_task_func+0x118>)
 8000658:	4830      	ldr	r0, [pc, #192]	; (800071c <message_task_func+0x11c>)
 800065a:	f002 fe37 	bl	80032cc <strtok>
 800065e:	492e      	ldr	r1, [pc, #184]	; (8000718 <message_task_func+0x118>)
 8000660:	4680      	mov	r8, r0
 8000662:	2000      	movs	r0, #0
 8000664:	f002 fe32 	bl	80032cc <strtok>
 8000668:	4607      	mov	r7, r0
 800066a:	4642      	mov	r2, r8
 800066c:	492c      	ldr	r1, [pc, #176]	; (8000720 <message_task_func+0x120>)
 800066e:	a804      	add	r0, sp, #16
 8000670:	f002 fdb0 	bl	80031d4 <siprintf>
 8000674:	4639      	mov	r1, r7
 8000676:	a814      	add	r0, sp, #80	; 0x50
 8000678:	f002 fe05 	bl	8003286 <strcpy>
 800067c:	a814      	add	r0, sp, #80	; 0x50
 800067e:	f7ff fd71 	bl	8000164 <strlen>
 8000682:	ab3c      	add	r3, sp, #240	; 0xf0
 8000684:	4418      	add	r0, r3
 8000686:	231a      	movs	r3, #26
 8000688:	f800 3ca1 	strb.w	r3, [r0, #-161]
 800068c:	a801      	add	r0, sp, #4
 800068e:	f7ff fd69 	bl	8000164 <strlen>
 8000692:	f44f 73c8 	mov.w	r3, #400	; 0x190
 8000696:	b282      	uxth	r2, r0
 8000698:	a901      	add	r1, sp, #4
 800069a:	4822      	ldr	r0, [pc, #136]	; (8000724 <message_task_func+0x124>)
 800069c:	f001 fdd0 	bl	8002240 <HAL_UART_Transmit>
 80006a0:	f44f 73c8 	mov.w	r3, #400	; 0x190
 80006a4:	f44f 7280 	mov.w	r2, #256	; 0x100
 80006a8:	4621      	mov	r1, r4
 80006aa:	481e      	ldr	r0, [pc, #120]	; (8000724 <message_task_func+0x124>)
 80006ac:	f001 fe1f 	bl	80022ee <HAL_UART_Receive>
 80006b0:	a804      	add	r0, sp, #16
 80006b2:	f7ff fd57 	bl	8000164 <strlen>
 80006b6:	f44f 73c8 	mov.w	r3, #400	; 0x190
 80006ba:	b282      	uxth	r2, r0
 80006bc:	a904      	add	r1, sp, #16
 80006be:	4819      	ldr	r0, [pc, #100]	; (8000724 <message_task_func+0x124>)
 80006c0:	f001 fdbe 	bl	8002240 <HAL_UART_Transmit>
 80006c4:	f44f 73c8 	mov.w	r3, #400	; 0x190
 80006c8:	f44f 7280 	mov.w	r2, #256	; 0x100
 80006cc:	4621      	mov	r1, r4
 80006ce:	4815      	ldr	r0, [pc, #84]	; (8000724 <message_task_func+0x124>)
 80006d0:	f001 fe0d 	bl	80022ee <HAL_UART_Receive>
 80006d4:	a804      	add	r0, sp, #16
 80006d6:	f7ff fd45 	bl	8000164 <strlen>
 80006da:	f44f 73c8 	mov.w	r3, #400	; 0x190
 80006de:	b282      	uxth	r2, r0
 80006e0:	a914      	add	r1, sp, #80	; 0x50
 80006e2:	4810      	ldr	r0, [pc, #64]	; (8000724 <message_task_func+0x124>)
 80006e4:	f001 fdac 	bl	8002240 <HAL_UART_Transmit>
 80006e8:	f44f 73c8 	mov.w	r3, #400	; 0x190
 80006ec:	f44f 7280 	mov.w	r2, #256	; 0x100
 80006f0:	4621      	mov	r1, r4
 80006f2:	480c      	ldr	r0, [pc, #48]	; (8000724 <message_task_func+0x124>)
 80006f4:	f001 fdfb 	bl	80022ee <HAL_UART_Receive>
 80006f8:	2302      	movs	r3, #2
 80006fa:	7033      	strb	r3, [r6, #0]
 80006fc:	e797      	b.n	800062e <message_task_func+0x2e>
 80006fe:	f44f 70fa 	mov.w	r0, #500	; 0x1f4
 8000702:	f002 faab 	bl	8002c5c <vTaskDelay>
 8000706:	e792      	b.n	800062e <message_task_func+0x2e>
 8000708:	080046fe 	.word	0x080046fe
 800070c:	20000455 	.word	0x20000455
 8000710:	20000456 	.word	0x20000456
 8000714:	2000076c 	.word	0x2000076c
 8000718:	080046ed 	.word	0x080046ed
 800071c:	20000773 	.word	0x20000773
 8000720:	080046ef 	.word	0x080046ef
 8000724:	20002048 	.word	0x20002048

08000728 <HAL_UART_RxCpltCallback>:
 8000728:	4809      	ldr	r0, [pc, #36]	; (8000750 <HAL_UART_RxCpltCallback+0x28>)
 800072a:	490a      	ldr	r1, [pc, #40]	; (8000754 <HAL_UART_RxCpltCallback+0x2c>)
 800072c:	6803      	ldr	r3, [r0, #0]
 800072e:	5cca      	ldrb	r2, [r1, r3]
 8000730:	2a0a      	cmp	r2, #10
 8000732:	d107      	bne.n	8000744 <HAL_UART_RxCpltCallback+0x1c>
 8000734:	2201      	movs	r2, #1
 8000736:	4b08      	ldr	r3, [pc, #32]	; (8000758 <HAL_UART_RxCpltCallback+0x30>)
 8000738:	701a      	strb	r2, [r3, #0]
 800073a:	2300      	movs	r3, #0
 800073c:	6003      	str	r3, [r0, #0]
 800073e:	4807      	ldr	r0, [pc, #28]	; (800075c <HAL_UART_RxCpltCallback+0x34>)
 8000740:	f001 be31 	b.w	80023a6 <HAL_UART_Receive_IT>
 8000744:	3301      	adds	r3, #1
 8000746:	6003      	str	r3, [r0, #0]
 8000748:	2201      	movs	r2, #1
 800074a:	4419      	add	r1, r3
 800074c:	e7f7      	b.n	800073e <HAL_UART_RxCpltCallback+0x16>
 800074e:	bf00      	nop
 8000750:	20000758 	.word	0x20000758
 8000754:	20000657 	.word	0x20000657
 8000758:	20000656 	.word	0x20000656
 800075c:	2000294c 	.word	0x2000294c

08000760 <SystemClock_Config>:
 8000760:	2220      	movs	r2, #32
 8000762:	b510      	push	{r4, lr}
 8000764:	b090      	sub	sp, #64	; 0x40
 8000766:	2100      	movs	r1, #0
 8000768:	eb0d 0002 	add.w	r0, sp, r2
 800076c:	f002 fd29 	bl	80031c2 <memset>
 8000770:	2100      	movs	r1, #0
 8000772:	2214      	movs	r2, #20
 8000774:	a801      	add	r0, sp, #4
 8000776:	f002 fd24 	bl	80031c2 <memset>
 800077a:	2402      	movs	r4, #2
 800077c:	2201      	movs	r2, #1
 800077e:	f44f 3380 	mov.w	r3, #65536	; 0x10000
 8000782:	a806      	add	r0, sp, #24
 8000784:	e9cd 2306 	strd	r2, r3, [sp, #24]
 8000788:	920a      	str	r2, [sp, #40]	; 0x28
 800078a:	e9cd 430d 	strd	r4, r3, [sp, #52]	; 0x34
 800078e:	f001 f8cf 	bl	8001930 <HAL_RCC_OscConfig>
 8000792:	4601      	mov	r1, r0
 8000794:	b108      	cbz	r0, 800079a <SystemClock_Config+0x3a>
 8000796:	b672      	cpsid	i
 8000798:	e7fe      	b.n	8000798 <SystemClock_Config+0x38>
 800079a:	230f      	movs	r3, #15
 800079c:	e9cd 3401 	strd	r3, r4, [sp, #4]
 80007a0:	f44f 6380 	mov.w	r3, #1024	; 0x400
 80007a4:	9003      	str	r0, [sp, #12]
 80007a6:	e9cd 3004 	strd	r3, r0, [sp, #16]
 80007aa:	a801      	add	r0, sp, #4
 80007ac:	f001 fa98 	bl	8001ce0 <HAL_RCC_ClockConfig>
 80007b0:	b108      	cbz	r0, 80007b6 <SystemClock_Config+0x56>
 80007b2:	b672      	cpsid	i
 80007b4:	e7fe      	b.n	80007b4 <SystemClock_Config+0x54>
 80007b6:	b010      	add	sp, #64	; 0x40
 80007b8:	bd10      	pop	{r4, pc}
	...

080007bc <main>:
 80007bc:	e92d 4ff0 	stmdb	sp!, {r4, r5, r6, r7, r8, r9, sl, fp, lr}
 80007c0:	f5ad 7d1b 	sub.w	sp, sp, #620	; 0x26c
 80007c4:	f000 ff06 	bl	80015d4 <HAL_Init>
 80007c8:	f7ff fce0 	bl	800018c <MX_GPIO_Init>
 80007cc:	f7ff ffc8 	bl	8000760 <SystemClock_Config>
 80007d0:	f7ff fcdc 	bl	800018c <MX_GPIO_Init>
 80007d4:	f44f 33e1 	mov.w	r3, #115200	; 0x1c200
 80007d8:	48be      	ldr	r0, [pc, #760]	; (8000ad4 <main+0x318>)
 80007da:	4dbf      	ldr	r5, [pc, #764]	; (8000ad8 <main+0x31c>)
 80007dc:	e9c0 5300 	strd	r5, r3, [r0]
 80007e0:	2300      	movs	r3, #0
 80007e2:	250c      	movs	r5, #12
 80007e4:	e9c0 3302 	strd	r3, r3, [r0, #8]
 80007e8:	6103      	str	r3, [r0, #16]
 80007ea:	e9c0 5305 	strd	r5, r3, [r0, #20]
 80007ee:	61c3      	str	r3, [r0, #28]
 80007f0:	f001 fcf8 	bl	80021e4 <HAL_UART_Init>
 80007f4:	b108      	cbz	r0, 80007fa <main+0x3e>
 80007f6:	b672      	cpsid	i
 80007f8:	e7fe      	b.n	80007f8 <main+0x3c>
 80007fa:	f44f 5216 	mov.w	r2, #9600	; 0x2580
 80007fe:	4bb7      	ldr	r3, [pc, #732]	; (8000adc <main+0x320>)
 8000800:	49b7      	ldr	r1, [pc, #732]	; (8000ae0 <main+0x324>)
 8000802:	e9c3 0002 	strd	r0, r0, [r3, #8]
 8000806:	e9c3 0504 	strd	r0, r5, [r3, #16]
 800080a:	e9c3 0006 	strd	r0, r0, [r3, #24]
 800080e:	4618      	mov	r0, r3
 8000810:	e9c3 1200 	strd	r1, r2, [r3]
 8000814:	f001 fce6 	bl	80021e4 <HAL_UART_Init>
 8000818:	b108      	cbz	r0, 800081e <main+0x62>
 800081a:	b672      	cpsid	i
 800081c:	e7fe      	b.n	800081c <main+0x60>
 800081e:	4bb1      	ldr	r3, [pc, #708]	; (8000ae4 <main+0x328>)
 8000820:	889a      	ldrh	r2, [r3, #4]
 8000822:	6818      	ldr	r0, [r3, #0]
 8000824:	799b      	ldrb	r3, [r3, #6]
 8000826:	f8ad 2018 	strh.w	r2, [sp, #24]
 800082a:	f88d 301a 	strb.w	r3, [sp, #26]
 800082e:	4bae      	ldr	r3, [pc, #696]	; (8000ae8 <main+0x32c>)
 8000830:	9005      	str	r0, [sp, #20]
 8000832:	aa0a      	add	r2, sp, #40	; 0x28
 8000834:	f103 0608 	add.w	r6, r3, #8
 8000838:	4615      	mov	r5, r2
 800083a:	6818      	ldr	r0, [r3, #0]
 800083c:	6859      	ldr	r1, [r3, #4]
 800083e:	3308      	adds	r3, #8
 8000840:	c503      	stmia	r5!, {r0, r1}
 8000842:	42b3      	cmp	r3, r6
 8000844:	462a      	mov	r2, r5
 8000846:	d1f7      	bne.n	8000838 <main+0x7c>
 8000848:	6818      	ldr	r0, [r3, #0]
 800084a:	4aa8      	ldr	r2, [pc, #672]	; (8000aec <main+0x330>)
 800084c:	791b      	ldrb	r3, [r3, #4]
 800084e:	6028      	str	r0, [r5, #0]
 8000850:	6851      	ldr	r1, [r2, #4]
 8000852:	6810      	ldr	r0, [r2, #0]
 8000854:	712b      	strb	r3, [r5, #4]
 8000856:	ab07      	add	r3, sp, #28
 8000858:	c303      	stmia	r3!, {r0, r1}
 800085a:	6890      	ldr	r0, [r2, #8]
 800085c:	2100      	movs	r1, #0
 800085e:	6018      	str	r0, [r3, #0]
 8000860:	22b0      	movs	r2, #176	; 0xb0
 8000862:	a82e      	add	r0, sp, #184	; 0xb8
 8000864:	f002 fcad 	bl	80031c2 <memset>
 8000868:	f44f 7280 	mov.w	r2, #256	; 0x100
 800086c:	2100      	movs	r1, #0
 800086e:	a85a      	add	r0, sp, #360	; 0x168
 8000870:	f002 fca7 	bl	80031c2 <memset>
 8000874:	2240      	movs	r2, #64	; 0x40
 8000876:	2100      	movs	r1, #0
 8000878:	a81e      	add	r0, sp, #120	; 0x78
 800087a:	f002 fca2 	bl	80031c2 <memset>
 800087e:	a805      	add	r0, sp, #20
 8000880:	f7ff fc70 	bl	8000164 <strlen>
 8000884:	23c8      	movs	r3, #200	; 0xc8
 8000886:	b282      	uxth	r2, r0
 8000888:	a905      	add	r1, sp, #20
 800088a:	4892      	ldr	r0, [pc, #584]	; (8000ad4 <main+0x318>)
 800088c:	f001 fcd8 	bl	8002240 <HAL_UART_Transmit>
 8000890:	f44f 73c8 	mov.w	r3, #400	; 0x190
 8000894:	f44f 7280 	mov.w	r2, #256	; 0x100
 8000898:	a95a      	add	r1, sp, #360	; 0x168
 800089a:	488e      	ldr	r0, [pc, #568]	; (8000ad4 <main+0x318>)
 800089c:	f001 fd27 	bl	80022ee <HAL_UART_Receive>
 80008a0:	a80a      	add	r0, sp, #40	; 0x28
 80008a2:	f7ff fc5f 	bl	8000164 <strlen>
 80008a6:	23c8      	movs	r3, #200	; 0xc8
 80008a8:	b282      	uxth	r2, r0
 80008aa:	a90a      	add	r1, sp, #40	; 0x28
 80008ac:	4889      	ldr	r0, [pc, #548]	; (8000ad4 <main+0x318>)
 80008ae:	f001 fcc7 	bl	8002240 <HAL_UART_Transmit>
 80008b2:	f44f 73c8 	mov.w	r3, #400	; 0x190
 80008b6:	f44f 7280 	mov.w	r2, #256	; 0x100
 80008ba:	a95a      	add	r1, sp, #360	; 0x168
 80008bc:	4885      	ldr	r0, [pc, #532]	; (8000ad4 <main+0x318>)
 80008be:	f001 fd16 	bl	80022ee <HAL_UART_Receive>
 80008c2:	a807      	add	r0, sp, #28
 80008c4:	f7ff fc4e 	bl	8000164 <strlen>
 80008c8:	23c8      	movs	r3, #200	; 0xc8
 80008ca:	b282      	uxth	r2, r0
 80008cc:	a907      	add	r1, sp, #28
 80008ce:	4881      	ldr	r0, [pc, #516]	; (8000ad4 <main+0x318>)
 80008d0:	f001 fcb6 	bl	8002240 <HAL_UART_Transmit>
 80008d4:	f44f 73c8 	mov.w	r3, #400	; 0x190
 80008d8:	f44f 7280 	mov.w	r2, #256	; 0x100
 80008dc:	a95a      	add	r1, sp, #360	; 0x168
 80008de:	487d      	ldr	r0, [pc, #500]	; (8000ad4 <main+0x318>)
 80008e0:	f001 fd05 	bl	80022ee <HAL_UART_Receive>
 80008e4:	f44f 7280 	mov.w	r2, #256	; 0x100
 80008e8:	2100      	movs	r1, #0
 80008ea:	a85a      	add	r0, sp, #360	; 0x168
 80008ec:	f002 fc69 	bl	80031c2 <memset>
 80008f0:	2501      	movs	r5, #1
 80008f2:	4f7f      	ldr	r7, [pc, #508]	; (8000af0 <main+0x334>)
 80008f4:	4e77      	ldr	r6, [pc, #476]	; (8000ad4 <main+0x318>)
 80008f6:	f8df 8200 	ldr.w	r8, [pc, #512]	; 8000af8 <main+0x33c>
 80008fa:	462a      	mov	r2, r5
 80008fc:	4639      	mov	r1, r7
 80008fe:	a81e      	add	r0, sp, #120	; 0x78
 8000900:	f002 fc68 	bl	80031d4 <siprintf>
 8000904:	a81e      	add	r0, sp, #120	; 0x78
 8000906:	f7ff fc2d 	bl	8000164 <strlen>
 800090a:	23c8      	movs	r3, #200	; 0xc8
 800090c:	b282      	uxth	r2, r0
 800090e:	a91e      	add	r1, sp, #120	; 0x78
 8000910:	4630      	mov	r0, r6
 8000912:	f001 fc95 	bl	8002240 <HAL_UART_Transmit>
 8000916:	a95a      	add	r1, sp, #360	; 0x168
 8000918:	f44f 73c8 	mov.w	r3, #400	; 0x190
 800091c:	f44f 7280 	mov.w	r2, #256	; 0x100
 8000920:	4630      	mov	r0, r6
 8000922:	f001 fce4 	bl	80022ee <HAL_UART_Receive>
 8000926:	4641      	mov	r1, r8
 8000928:	a85a      	add	r0, sp, #360	; 0x168
 800092a:	f7ff fc11 	bl	8000150 <strcmp>
 800092e:	2800      	cmp	r0, #0
 8000930:	f040 8092 	bne.w	8000a58 <main+0x29c>
 8000934:	f8df a208 	ldr.w	sl, [pc, #520]	; 8000b40 <main+0x384>
 8000938:	23fa      	movs	r3, #250	; 0xfa
 800093a:	46d3      	mov	fp, sl
 800093c:	9302      	str	r3, [sp, #8]
 800093e:	f8da 2000 	ldr.w	r2, [sl]
 8000942:	496c      	ldr	r1, [pc, #432]	; (8000af4 <main+0x338>)
 8000944:	3201      	adds	r2, #1
 8000946:	a81e      	add	r0, sp, #120	; 0x78
 8000948:	f002 fc44 	bl	80031d4 <siprintf>
 800094c:	a81e      	add	r0, sp, #120	; 0x78
 800094e:	f7ff fc09 	bl	8000164 <strlen>
 8000952:	23c8      	movs	r3, #200	; 0xc8
 8000954:	b282      	uxth	r2, r0
 8000956:	a91e      	add	r1, sp, #120	; 0x78
 8000958:	485e      	ldr	r0, [pc, #376]	; (8000ad4 <main+0x318>)
 800095a:	f001 fc71 	bl	8002240 <HAL_UART_Transmit>
 800095e:	a92e      	add	r1, sp, #184	; 0xb8
 8000960:	f44f 737a 	mov.w	r3, #1000	; 0x3e8
 8000964:	22b0      	movs	r2, #176	; 0xb0
 8000966:	485b      	ldr	r0, [pc, #364]	; (8000ad4 <main+0x318>)
 8000968:	f001 fcc1 	bl	80022ee <HAL_UART_Receive>
 800096c:	4962      	ldr	r1, [pc, #392]	; (8000af8 <main+0x33c>)
 800096e:	a82e      	add	r0, sp, #184	; 0xb8
 8000970:	f7ff fbee 	bl	8000150 <strcmp>
 8000974:	2800      	cmp	r0, #0
 8000976:	f040 80e5 	bne.w	8000b44 <main+0x388>
 800097a:	2403      	movs	r4, #3
 800097c:	4b5f      	ldr	r3, [pc, #380]	; (8000afc <main+0x340>)
 800097e:	9400      	str	r4, [sp, #0]
 8000980:	9301      	str	r3, [sp, #4]
 8000982:	f44f 72c0 	mov.w	r2, #384	; 0x180
 8000986:	2300      	movs	r3, #0
 8000988:	495d      	ldr	r1, [pc, #372]	; (8000b00 <main+0x344>)
 800098a:	485e      	ldr	r0, [pc, #376]	; (8000b04 <main+0x348>)
 800098c:	f001 fff3 	bl	8002976 <xTaskCreate>
 8000990:	2801      	cmp	r0, #1
 8000992:	f040 812a 	bne.w	8000bea <main+0x42e>
 8000996:	4b5c      	ldr	r3, [pc, #368]	; (8000b08 <main+0x34c>)
 8000998:	f44f 7280 	mov.w	r2, #256	; 0x100
 800099c:	e9cd 4300 	strd	r4, r3, [sp]
 80009a0:	495a      	ldr	r1, [pc, #360]	; (8000b0c <main+0x350>)
 80009a2:	2300      	movs	r3, #0
 80009a4:	485a      	ldr	r0, [pc, #360]	; (8000b10 <main+0x354>)
 80009a6:	f001 ffe6 	bl	8002976 <xTaskCreate>
 80009aa:	2801      	cmp	r0, #1
 80009ac:	d000      	beq.n	80009b0 <main+0x1f4>
 80009ae:	bf00      	nop
 80009b0:	2407      	movs	r4, #7
 80009b2:	4b58      	ldr	r3, [pc, #352]	; (8000b14 <main+0x358>)
 80009b4:	9400      	str	r4, [sp, #0]
 80009b6:	9301      	str	r3, [sp, #4]
 80009b8:	f44f 7280 	mov.w	r2, #256	; 0x100
 80009bc:	2300      	movs	r3, #0
 80009be:	4956      	ldr	r1, [pc, #344]	; (8000b18 <main+0x35c>)
 80009c0:	4856      	ldr	r0, [pc, #344]	; (8000b1c <main+0x360>)
 80009c2:	f001 ffd8 	bl	8002976 <xTaskCreate>
 80009c6:	2801      	cmp	r0, #1
 80009c8:	d000      	beq.n	80009cc <main+0x210>
 80009ca:	bf00      	nop
 80009cc:	4b54      	ldr	r3, [pc, #336]	; (8000b20 <main+0x364>)
 80009ce:	f44f 7280 	mov.w	r2, #256	; 0x100
 80009d2:	e9cd 4300 	strd	r4, r3, [sp]
 80009d6:	4953      	ldr	r1, [pc, #332]	; (8000b24 <main+0x368>)
 80009d8:	2300      	movs	r3, #0
 80009da:	4853      	ldr	r0, [pc, #332]	; (8000b28 <main+0x36c>)
 80009dc:	f001 ffcb 	bl	8002976 <xTaskCreate>
 80009e0:	2801      	cmp	r0, #1
 80009e2:	d000      	beq.n	80009e6 <main+0x22a>
 80009e4:	bf00      	nop
 80009e6:	4b51      	ldr	r3, [pc, #324]	; (8000b2c <main+0x370>)
 80009e8:	aa14      	add	r2, sp, #80	; 0x50
 80009ea:	f103 0520 	add.w	r5, r3, #32
 80009ee:	4614      	mov	r4, r2
 80009f0:	6818      	ldr	r0, [r3, #0]
 80009f2:	6859      	ldr	r1, [r3, #4]
 80009f4:	3308      	adds	r3, #8
 80009f6:	c403      	stmia	r4!, {r0, r1}
 80009f8:	42ab      	cmp	r3, r5
 80009fa:	4622      	mov	r2, r4
 80009fc:	d1f7      	bne.n	80009ee <main+0x232>
 80009fe:	6818      	ldr	r0, [r3, #0]
 8000a00:	889b      	ldrh	r3, [r3, #4]
 8000a02:	6020      	str	r0, [r4, #0]
 8000a04:	80a3      	strh	r3, [r4, #4]
 8000a06:	4b4a      	ldr	r3, [pc, #296]	; (8000b30 <main+0x374>)
 8000a08:	aa0e      	add	r2, sp, #56	; 0x38
 8000a0a:	f103 0510 	add.w	r5, r3, #16
 8000a0e:	4614      	mov	r4, r2
 8000a10:	6818      	ldr	r0, [r3, #0]
 8000a12:	6859      	ldr	r1, [r3, #4]
 8000a14:	3308      	adds	r3, #8
 8000a16:	c403      	stmia	r4!, {r0, r1}
 8000a18:	42ab      	cmp	r3, r5
 8000a1a:	4622      	mov	r2, r4
 8000a1c:	d1f7      	bne.n	8000a0e <main+0x252>
 8000a1e:	6818      	ldr	r0, [r3, #0]
 8000a20:	889b      	ldrh	r3, [r3, #4]
 8000a22:	6020      	str	r0, [r4, #0]
 8000a24:	80a3      	strh	r3, [r4, #4]
 8000a26:	a814      	add	r0, sp, #80	; 0x50
 8000a28:	f7ff fb9c 	bl	8000164 <strlen>
 8000a2c:	a914      	add	r1, sp, #80	; 0x50
 8000a2e:	b282      	uxth	r2, r0
 8000a30:	23c8      	movs	r3, #200	; 0xc8
 8000a32:	482a      	ldr	r0, [pc, #168]	; (8000adc <main+0x320>)
 8000a34:	f001 fc04 	bl	8002240 <HAL_UART_Transmit>
 8000a38:	a80e      	add	r0, sp, #56	; 0x38
 8000a3a:	f7ff fb93 	bl	8000164 <strlen>
 8000a3e:	23c8      	movs	r3, #200	; 0xc8
 8000a40:	b282      	uxth	r2, r0
 8000a42:	a90e      	add	r1, sp, #56	; 0x38
 8000a44:	4825      	ldr	r0, [pc, #148]	; (8000adc <main+0x320>)
 8000a46:	f001 fbfb 	bl	8002240 <HAL_UART_Transmit>
 8000a4a:	f001 ffc1 	bl	80029d0 <vTaskStartScheduler>
 8000a4e:	2000      	movs	r0, #0
 8000a50:	f50d 7d1b 	add.w	sp, sp, #620	; 0x26c
 8000a54:	e8bd 8ff0 	ldmia.w	sp!, {r4, r5, r6, r7, r8, r9, sl, fp, pc}
 8000a58:	2122      	movs	r1, #34	; 0x22
 8000a5a:	a85a      	add	r0, sp, #360	; 0x168
 8000a5c:	f002 fc06 	bl	800326c <strchr>
 8000a60:	f110 0a01 	adds.w	sl, r0, #1
 8000a64:	d004      	beq.n	8000a70 <main+0x2b4>
 8000a66:	2122      	movs	r1, #34	; 0x22
 8000a68:	4650      	mov	r0, sl
 8000a6a:	f002 fbff 	bl	800326c <strchr>
 8000a6e:	4604      	mov	r4, r0
 8000a70:	4b30      	ldr	r3, [pc, #192]	; (8000b34 <main+0x378>)
 8000a72:	ea4f 1945 	mov.w	r9, r5, lsl #5
 8000a76:	444b      	add	r3, r9
 8000a78:	4650      	mov	r0, sl
 8000a7a:	e003      	b.n	8000a84 <main+0x2c8>
 8000a7c:	f810 2b01 	ldrb.w	r2, [r0], #1
 8000a80:	f803 2f01 	strb.w	r2, [r3, #1]!
 8000a84:	42a0      	cmp	r0, r4
 8000a86:	d1f9      	bne.n	8000a7c <main+0x2c0>
 8000a88:	f100 0a01 	add.w	sl, r0, #1
 8000a8c:	2122      	movs	r1, #34	; 0x22
 8000a8e:	4650      	mov	r0, sl
 8000a90:	f002 fbec 	bl	800326c <strchr>
 8000a94:	1c44      	adds	r4, r0, #1
 8000a96:	d004      	beq.n	8000aa2 <main+0x2e6>
 8000a98:	2122      	movs	r1, #34	; 0x22
 8000a9a:	4620      	mov	r0, r4
 8000a9c:	f002 fbe6 	bl	800326c <strchr>
 8000aa0:	4682      	mov	sl, r0
 8000aa2:	4b25      	ldr	r3, [pc, #148]	; (8000b38 <main+0x37c>)
 8000aa4:	4499      	add	r9, r3
 8000aa6:	4554      	cmp	r4, sl
 8000aa8:	d10f      	bne.n	8000aca <main+0x30e>
 8000aaa:	f44f 7280 	mov.w	r2, #256	; 0x100
 8000aae:	2100      	movs	r1, #0
 8000ab0:	a85a      	add	r0, sp, #360	; 0x168
 8000ab2:	f002 fb86 	bl	80031c2 <memset>
 8000ab6:	4a21      	ldr	r2, [pc, #132]	; (8000b3c <main+0x380>)
 8000ab8:	3501      	adds	r5, #1
 8000aba:	6813      	ldr	r3, [r2, #0]
 8000abc:	2d14      	cmp	r5, #20
 8000abe:	f103 0301 	add.w	r3, r3, #1
 8000ac2:	6013      	str	r3, [r2, #0]
 8000ac4:	f47f af19 	bne.w	80008fa <main+0x13e>
 8000ac8:	e734      	b.n	8000934 <main+0x178>
 8000aca:	f814 3b01 	ldrb.w	r3, [r4], #1
 8000ace:	f809 3f01 	strb.w	r3, [r9, #1]!
 8000ad2:	e7e8      	b.n	8000aa6 <main+0x2ea>
 8000ad4:	20002048 	.word	0x20002048
 8000ad8:	40013800 	.word	0x40013800
 8000adc:	2000294c 	.word	0x2000294c
 8000ae0:	40004400 	.word	0x40004400
 8000ae4:	0800469d 	.word	0x0800469d
 8000ae8:	080046a4 	.word	0x080046a4
 8000aec:	080046fe 	.word	0x080046fe
 8000af0:	0800464a 	.word	0x0800464a
 8000af4:	0800465e 	.word	0x0800465e
 8000af8:	08004657 	.word	0x08004657
 8000afc:	2000298c 	.word	0x2000298c
 8000b00:	0800466b 	.word	0x0800466b
 8000b04:	080010b1 	.word	0x080010b1
 8000b08:	20002088 	.word	0x20002088
 8000b0c:	0800467b 	.word	0x0800467b
 8000b10:	08000601 	.word	0x08000601
 8000b14:	20002044 	.word	0x20002044
 8000b18:	08004684 	.word	0x08004684
 8000b1c:	08000201 	.word	0x08000201
 8000b20:	20001dc0 	.word	0x20001dc0
 8000b24:	0800468e 	.word	0x0800468e
 8000b28:	080012d5 	.word	0x080012d5
 8000b2c:	080046b1 	.word	0x080046b1
 8000b30:	080046d7 	.word	0x080046d7
 8000b34:	20001db3 	.word	0x20001db3
 8000b38:	20001da3 	.word	0x20001da3
 8000b3c:	20000760 	.word	0x20000760
 8000b40:	20000768 	.word	0x20000768
 8000b44:	2270      	movs	r2, #112	; 0x70
 8000b46:	f8df 90b0 	ldr.w	r9, [pc, #176]	; 8000bf8 <main+0x43c>
 8000b4a:	4d29      	ldr	r5, [pc, #164]	; (8000bf0 <main+0x434>)
 8000b4c:	f8d9 6000 	ldr.w	r6, [r9]
 8000b50:	2100      	movs	r1, #0
 8000b52:	fb02 f806 	mul.w	r8, r2, r6
 8000b56:	eb08 0705 	add.w	r7, r8, r5
 8000b5a:	4638      	mov	r0, r7
 8000b5c:	f002 fb31 	bl	80031c2 <memset>
 8000b60:	4924      	ldr	r1, [pc, #144]	; (8000bf4 <main+0x438>)
 8000b62:	a82e      	add	r0, sp, #184	; 0xb8
 8000b64:	f002 fb97 	bl	8003296 <strstr>
 8000b68:	1c43      	adds	r3, r0, #1
 8000b6a:	d006      	beq.n	8000b7a <main+0x3be>
 8000b6c:	4618      	mov	r0, r3
 8000b6e:	2122      	movs	r1, #34	; 0x22
 8000b70:	9303      	str	r3, [sp, #12]
 8000b72:	f002 fb7b 	bl	800326c <strchr>
 8000b76:	4604      	mov	r4, r0
 8000b78:	9b03      	ldr	r3, [sp, #12]
 8000b7a:	3f01      	subs	r7, #1
 8000b7c:	4618      	mov	r0, r3
 8000b7e:	e003      	b.n	8000b88 <main+0x3cc>
 8000b80:	f810 3b01 	ldrb.w	r3, [r0], #1
 8000b84:	f807 3f01 	strb.w	r3, [r7, #1]!
 8000b88:	42a0      	cmp	r0, r4
 8000b8a:	d1f9      	bne.n	8000b80 <main+0x3c4>
 8000b8c:	1c47      	adds	r7, r0, #1
 8000b8e:	210a      	movs	r1, #10
 8000b90:	4638      	mov	r0, r7
 8000b92:	f002 fb6b 	bl	800326c <strchr>
 8000b96:	1c44      	adds	r4, r0, #1
 8000b98:	d004      	beq.n	8000ba4 <main+0x3e8>
 8000b9a:	210d      	movs	r1, #13
 8000b9c:	4620      	mov	r0, r4
 8000b9e:	f002 fb65 	bl	800326c <strchr>
 8000ba2:	4607      	mov	r7, r0
 8000ba4:	f108 080f 	add.w	r8, r8, #15
 8000ba8:	4445      	add	r5, r8
 8000baa:	42bc      	cmp	r4, r7
 8000bac:	d118      	bne.n	8000be0 <main+0x424>
 8000bae:	22b0      	movs	r2, #176	; 0xb0
 8000bb0:	2100      	movs	r1, #0
 8000bb2:	a82e      	add	r0, sp, #184	; 0xb8
 8000bb4:	f002 fb05 	bl	80031c2 <memset>
 8000bb8:	f8db 3000 	ldr.w	r3, [fp]
 8000bbc:	3601      	adds	r6, #1
 8000bbe:	3301      	adds	r3, #1
 8000bc0:	2e14      	cmp	r6, #20
 8000bc2:	f8cb 3000 	str.w	r3, [fp]
 8000bc6:	bf04      	itt	eq
 8000bc8:	2300      	moveq	r3, #0
 8000bca:	f8c9 3000 	streq.w	r3, [r9]
 8000bce:	9b02      	ldr	r3, [sp, #8]
 8000bd0:	bf18      	it	ne
 8000bd2:	f8c9 6000 	strne.w	r6, [r9]
 8000bd6:	3b01      	subs	r3, #1
 8000bd8:	9302      	str	r3, [sp, #8]
 8000bda:	f47f aeb0 	bne.w	800093e <main+0x182>
 8000bde:	e6cc      	b.n	800097a <main+0x1be>
 8000be0:	f814 3b01 	ldrb.w	r3, [r4], #1
 8000be4:	f805 3f01 	strb.w	r3, [r5, #1]!
 8000be8:	e7df      	b.n	8000baa <main+0x3ee>
 8000bea:	bf00      	nop
 8000bec:	e6d3      	b.n	8000996 <main+0x1da>
 8000bee:	bf00      	nop
 8000bf0:	2000208c 	.word	0x2000208c
 8000bf4:	08004678 	.word	0x08004678
 8000bf8:	20000764 	.word	0x20000764

08000bfc <show_subscriber_with_index>:
 8000bfc:	b530      	push	{r4, r5, lr}
 8000bfe:	b0a7      	sub	sp, #156	; 0x9c
 8000c00:	4604      	mov	r4, r0
 8000c02:	2240      	movs	r2, #64	; 0x40
 8000c04:	2100      	movs	r1, #0
 8000c06:	a806      	add	r0, sp, #24
 8000c08:	f002 fadb 	bl	80031c2 <memset>
 8000c0c:	2240      	movs	r2, #64	; 0x40
 8000c0e:	2100      	movs	r1, #0
 8000c10:	a816      	add	r0, sp, #88	; 0x58
 8000c12:	f002 fad6 	bl	80031c2 <memset>
 8000c16:	466b      	mov	r3, sp
 8000c18:	4a25      	ldr	r2, [pc, #148]	; (8000cb0 <show_subscriber_with_index+0xb4>)
 8000c1a:	6810      	ldr	r0, [r2, #0]
 8000c1c:	6851      	ldr	r1, [r2, #4]
 8000c1e:	c303      	stmia	r3!, {r0, r1}
 8000c20:	6890      	ldr	r0, [r2, #8]
 8000c22:	4a24      	ldr	r2, [pc, #144]	; (8000cb4 <show_subscriber_with_index+0xb8>)
 8000c24:	6018      	str	r0, [r3, #0]
 8000c26:	6851      	ldr	r1, [r2, #4]
 8000c28:	6810      	ldr	r0, [r2, #0]
 8000c2a:	ab03      	add	r3, sp, #12
 8000c2c:	c303      	stmia	r3!, {r0, r1}
 8000c2e:	6890      	ldr	r0, [r2, #8]
 8000c30:	6018      	str	r0, [r3, #0]
 8000c32:	4b21      	ldr	r3, [pc, #132]	; (8000cb8 <show_subscriber_with_index+0xbc>)
 8000c34:	681b      	ldr	r3, [r3, #0]
 8000c36:	42a3      	cmp	r3, r4
 8000c38:	dd33      	ble.n	8000ca2 <show_subscriber_with_index+0xa6>
 8000c3a:	4d20      	ldr	r5, [pc, #128]	; (8000cbc <show_subscriber_with_index+0xc0>)
 8000c3c:	0164      	lsls	r4, r4, #5
 8000c3e:	192a      	adds	r2, r5, r4
 8000c40:	491f      	ldr	r1, [pc, #124]	; (8000cc0 <show_subscriber_with_index+0xc4>)
 8000c42:	a806      	add	r0, sp, #24
 8000c44:	f002 fac6 	bl	80031d4 <siprintf>
 8000c48:	f104 0210 	add.w	r2, r4, #16
 8000c4c:	442a      	add	r2, r5
 8000c4e:	491d      	ldr	r1, [pc, #116]	; (8000cc4 <show_subscriber_with_index+0xc8>)
 8000c50:	a816      	add	r0, sp, #88	; 0x58
 8000c52:	f002 fabf 	bl	80031d4 <siprintf>
 8000c56:	a806      	add	r0, sp, #24
 8000c58:	f7ff fa84 	bl	8000164 <strlen>
 8000c5c:	a906      	add	r1, sp, #24
 8000c5e:	b282      	uxth	r2, r0
 8000c60:	23c8      	movs	r3, #200	; 0xc8
 8000c62:	4819      	ldr	r0, [pc, #100]	; (8000cc8 <show_subscriber_with_index+0xcc>)
 8000c64:	f001 faec 	bl	8002240 <HAL_UART_Transmit>
 8000c68:	a816      	add	r0, sp, #88	; 0x58
 8000c6a:	f7ff fa7b 	bl	8000164 <strlen>
 8000c6e:	a916      	add	r1, sp, #88	; 0x58
 8000c70:	b282      	uxth	r2, r0
 8000c72:	23c8      	movs	r3, #200	; 0xc8
 8000c74:	4814      	ldr	r0, [pc, #80]	; (8000cc8 <show_subscriber_with_index+0xcc>)
 8000c76:	f001 fae3 	bl	8002240 <HAL_UART_Transmit>
 8000c7a:	4668      	mov	r0, sp
 8000c7c:	f7ff fa72 	bl	8000164 <strlen>
 8000c80:	4669      	mov	r1, sp
 8000c82:	b282      	uxth	r2, r0
 8000c84:	2364      	movs	r3, #100	; 0x64
 8000c86:	4810      	ldr	r0, [pc, #64]	; (8000cc8 <show_subscriber_with_index+0xcc>)
 8000c88:	f001 fada 	bl	8002240 <HAL_UART_Transmit>
 8000c8c:	a803      	add	r0, sp, #12
 8000c8e:	f7ff fa69 	bl	8000164 <strlen>
 8000c92:	2364      	movs	r3, #100	; 0x64
 8000c94:	b282      	uxth	r2, r0
 8000c96:	a903      	add	r1, sp, #12
 8000c98:	480b      	ldr	r0, [pc, #44]	; (8000cc8 <show_subscriber_with_index+0xcc>)
 8000c9a:	f001 fad1 	bl	8002240 <HAL_UART_Transmit>
 8000c9e:	b027      	add	sp, #156	; 0x9c
 8000ca0:	bd30      	pop	{r4, r5, pc}
 8000ca2:	4a0a      	ldr	r2, [pc, #40]	; (8000ccc <show_subscriber_with_index+0xd0>)
 8000ca4:	4906      	ldr	r1, [pc, #24]	; (8000cc0 <show_subscriber_with_index+0xc4>)
 8000ca6:	a806      	add	r0, sp, #24
 8000ca8:	f002 fa94 	bl	80031d4 <siprintf>
 8000cac:	4a07      	ldr	r2, [pc, #28]	; (8000ccc <show_subscriber_with_index+0xd0>)
 8000cae:	e7ce      	b.n	8000c4e <show_subscriber_with_index+0x52>
 8000cb0:	080047f3 	.word	0x080047f3
 8000cb4:	080047ff 	.word	0x080047ff
 8000cb8:	20000760 	.word	0x20000760
 8000cbc:	20001dc4 	.word	0x20001dc4
 8000cc0:	080047b1 	.word	0x080047b1
 8000cc4:	080047cf 	.word	0x080047cf
 8000cc8:	2000294c 	.word	0x2000294c
 8000ccc:	080047ed 	.word	0x080047ed

08000cd0 <add_subscriber>:
 8000cd0:	e92d 41f0 	stmdb	sp!, {r4, r5, r6, r7, r8, lr}
 8000cd4:	4c1c      	ldr	r4, [pc, #112]	; (8000d48 <add_subscriber+0x78>)
 8000cd6:	b090      	sub	sp, #64	; 0x40
 8000cd8:	4621      	mov	r1, r4
 8000cda:	f002 faf7 	bl	80032cc <strtok>
 8000cde:	4621      	mov	r1, r4
 8000ce0:	4680      	mov	r8, r0
 8000ce2:	2000      	movs	r0, #0
 8000ce4:	f002 faf2 	bl	80032cc <strtok>
 8000ce8:	4606      	mov	r6, r0
 8000cea:	f7ff fa3b 	bl	8000164 <strlen>
 8000cee:	2100      	movs	r1, #0
 8000cf0:	4430      	add	r0, r6
 8000cf2:	4d16      	ldr	r5, [pc, #88]	; (8000d4c <add_subscriber+0x7c>)
 8000cf4:	f800 1c01 	strb.w	r1, [r0, #-1]
 8000cf8:	2240      	movs	r2, #64	; 0x40
 8000cfa:	4668      	mov	r0, sp
 8000cfc:	f002 fa61 	bl	80031c2 <memset>
 8000d00:	4643      	mov	r3, r8
 8000d02:	4632      	mov	r2, r6
 8000d04:	4912      	ldr	r1, [pc, #72]	; (8000d50 <add_subscriber+0x80>)
 8000d06:	4668      	mov	r0, sp
 8000d08:	f002 fa64 	bl	80031d4 <siprintf>
 8000d0c:	682c      	ldr	r4, [r5, #0]
 8000d0e:	4f11      	ldr	r7, [pc, #68]	; (8000d54 <add_subscriber+0x84>)
 8000d10:	0164      	lsls	r4, r4, #5
 8000d12:	4641      	mov	r1, r8
 8000d14:	1938      	adds	r0, r7, r4
 8000d16:	f002 fab6 	bl	8003286 <strcpy>
 8000d1a:	f104 0010 	add.w	r0, r4, #16
 8000d1e:	4631      	mov	r1, r6
 8000d20:	4438      	add	r0, r7
 8000d22:	f002 fab0 	bl	8003286 <strcpy>
 8000d26:	4668      	mov	r0, sp
 8000d28:	f7ff fa1c 	bl	8000164 <strlen>
 8000d2c:	f44f 73c8 	mov.w	r3, #400	; 0x190
 8000d30:	b282      	uxth	r2, r0
 8000d32:	4669      	mov	r1, sp
 8000d34:	4808      	ldr	r0, [pc, #32]	; (8000d58 <add_subscriber+0x88>)
 8000d36:	f001 fa83 	bl	8002240 <HAL_UART_Transmit>
 8000d3a:	682b      	ldr	r3, [r5, #0]
 8000d3c:	3301      	adds	r3, #1
 8000d3e:	602b      	str	r3, [r5, #0]
 8000d40:	b010      	add	sp, #64	; 0x40
 8000d42:	e8bd 81f0 	ldmia.w	sp!, {r4, r5, r6, r7, r8, pc}
 8000d46:	bf00      	nop
 8000d48:	080046ed 	.word	0x080046ed
 8000d4c:	20000760 	.word	0x20000760
 8000d50:	080044f0 	.word	0x080044f0
 8000d54:	20001dc4 	.word	0x20001dc4
 8000d58:	20002048 	.word	0x20002048

08000d5c <show_text_message_index>:
 8000d5c:	b530      	push	{r4, r5, lr}
 8000d5e:	4b30      	ldr	r3, [pc, #192]	; (8000e20 <show_text_message_index+0xc4>)
 8000d60:	b0bb      	sub	sp, #236	; 0xec
 8000d62:	681c      	ldr	r4, [r3, #0]
 8000d64:	2240      	movs	r2, #64	; 0x40
 8000d66:	3c01      	subs	r4, #1
 8000d68:	1a24      	subs	r4, r4, r0
 8000d6a:	f04f 0100 	mov.w	r1, #0
 8000d6e:	a80a      	add	r0, sp, #40	; 0x28
 8000d70:	bf48      	it	mi
 8000d72:	3414      	addmi	r4, #20
 8000d74:	f002 fa25 	bl	80031c2 <memset>
 8000d78:	4a2a      	ldr	r2, [pc, #168]	; (8000e24 <show_text_message_index+0xc8>)
 8000d7a:	ab01      	add	r3, sp, #4
 8000d7c:	6810      	ldr	r0, [r2, #0]
 8000d7e:	6851      	ldr	r1, [r2, #4]
 8000d80:	4d29      	ldr	r5, [pc, #164]	; (8000e28 <show_text_message_index+0xcc>)
 8000d82:	c303      	stmia	r3!, {r0, r1}
 8000d84:	6890      	ldr	r0, [r2, #8]
 8000d86:	4a29      	ldr	r2, [pc, #164]	; (8000e2c <show_text_message_index+0xd0>)
 8000d88:	6018      	str	r0, [r3, #0]
 8000d8a:	6851      	ldr	r1, [r2, #4]
 8000d8c:	6810      	ldr	r0, [r2, #0]
 8000d8e:	ab04      	add	r3, sp, #16
 8000d90:	c303      	stmia	r3!, {r0, r1}
 8000d92:	6890      	ldr	r0, [r2, #8]
 8000d94:	4a26      	ldr	r2, [pc, #152]	; (8000e30 <show_text_message_index+0xd4>)
 8000d96:	6018      	str	r0, [r3, #0]
 8000d98:	6851      	ldr	r1, [r2, #4]
 8000d9a:	6810      	ldr	r0, [r2, #0]
 8000d9c:	ab07      	add	r3, sp, #28
 8000d9e:	c303      	stmia	r3!, {r0, r1}
 8000da0:	6890      	ldr	r0, [r2, #8]
 8000da2:	2270      	movs	r2, #112	; 0x70
 8000da4:	4354      	muls	r4, r2
 8000da6:	6018      	str	r0, [r3, #0]
 8000da8:	192a      	adds	r2, r5, r4
 8000daa:	4922      	ldr	r1, [pc, #136]	; (8000e34 <show_text_message_index+0xd8>)
 8000dac:	a80a      	add	r0, sp, #40	; 0x28
 8000dae:	3410      	adds	r4, #16
 8000db0:	f002 fa10 	bl	80031d4 <siprintf>
 8000db4:	192a      	adds	r2, r5, r4
 8000db6:	4920      	ldr	r1, [pc, #128]	; (8000e38 <show_text_message_index+0xdc>)
 8000db8:	a81a      	add	r0, sp, #104	; 0x68
 8000dba:	f002 fa0b 	bl	80031d4 <siprintf>
 8000dbe:	a80a      	add	r0, sp, #40	; 0x28
 8000dc0:	f7ff f9d0 	bl	8000164 <strlen>
 8000dc4:	a90a      	add	r1, sp, #40	; 0x28
 8000dc6:	b282      	uxth	r2, r0
 8000dc8:	23c8      	movs	r3, #200	; 0xc8
 8000dca:	481c      	ldr	r0, [pc, #112]	; (8000e3c <show_text_message_index+0xe0>)
 8000dcc:	f001 fa38 	bl	8002240 <HAL_UART_Transmit>
 8000dd0:	a81a      	add	r0, sp, #104	; 0x68
 8000dd2:	f7ff f9c7 	bl	8000164 <strlen>
 8000dd6:	a91a      	add	r1, sp, #104	; 0x68
 8000dd8:	b282      	uxth	r2, r0
 8000dda:	f44f 73c8 	mov.w	r3, #400	; 0x190
 8000dde:	4817      	ldr	r0, [pc, #92]	; (8000e3c <show_text_message_index+0xe0>)
 8000de0:	f001 fa2e 	bl	8002240 <HAL_UART_Transmit>
 8000de4:	a801      	add	r0, sp, #4
 8000de6:	f7ff f9bd 	bl	8000164 <strlen>
 8000dea:	a901      	add	r1, sp, #4
 8000dec:	b282      	uxth	r2, r0
 8000dee:	2364      	movs	r3, #100	; 0x64
 8000df0:	4812      	ldr	r0, [pc, #72]	; (8000e3c <show_text_message_index+0xe0>)
 8000df2:	f001 fa25 	bl	8002240 <HAL_UART_Transmit>
 8000df6:	a804      	add	r0, sp, #16
 8000df8:	f7ff f9b4 	bl	8000164 <strlen>
 8000dfc:	a904      	add	r1, sp, #16
 8000dfe:	b282      	uxth	r2, r0
 8000e00:	2364      	movs	r3, #100	; 0x64
 8000e02:	480e      	ldr	r0, [pc, #56]	; (8000e3c <show_text_message_index+0xe0>)
 8000e04:	f001 fa1c 	bl	8002240 <HAL_UART_Transmit>
 8000e08:	a807      	add	r0, sp, #28
 8000e0a:	f7ff f9ab 	bl	8000164 <strlen>
 8000e0e:	2364      	movs	r3, #100	; 0x64
 8000e10:	b282      	uxth	r2, r0
 8000e12:	a907      	add	r1, sp, #28
 8000e14:	4809      	ldr	r0, [pc, #36]	; (8000e3c <show_text_message_index+0xe0>)
 8000e16:	f001 fa13 	bl	8002240 <HAL_UART_Transmit>
 8000e1a:	b03b      	add	sp, #236	; 0xec
 8000e1c:	bd30      	pop	{r4, r5, pc}
 8000e1e:	bf00      	nop
 8000e20:	20000764 	.word	0x20000764
 8000e24:	0800483b 	.word	0x0800483b
 8000e28:	2000208c 	.word	0x2000208c
 8000e2c:	08004847 	.word	0x08004847
 8000e30:	080047ff 	.word	0x080047ff
 8000e34:	0800480b 	.word	0x0800480b
 8000e38:	08004823 	.word	0x08004823
 8000e3c:	2000294c 	.word	0x2000294c

08000e40 <send_date_and_time>:
 8000e40:	b530      	push	{r4, r5, lr}
 8000e42:	4a50      	ldr	r2, [pc, #320]	; (8000f84 <send_date_and_time+0x144>)
 8000e44:	b0a7      	sub	sp, #156	; 0x9c
 8000e46:	6810      	ldr	r0, [r2, #0]
 8000e48:	6851      	ldr	r1, [r2, #4]
 8000e4a:	ab0b      	add	r3, sp, #44	; 0x2c
 8000e4c:	c303      	stmia	r3!, {r0, r1}
 8000e4e:	8911      	ldrh	r1, [r2, #8]
 8000e50:	7a92      	ldrb	r2, [r2, #10]
 8000e52:	8019      	strh	r1, [r3, #0]
 8000e54:	709a      	strb	r2, [r3, #2]
 8000e56:	2100      	movs	r1, #0
 8000e58:	2240      	movs	r2, #64	; 0x40
 8000e5a:	a816      	add	r0, sp, #88	; 0x58
 8000e5c:	f002 f9b1 	bl	80031c2 <memset>
 8000e60:	2220      	movs	r2, #32
 8000e62:	2100      	movs	r1, #0
 8000e64:	a80e      	add	r0, sp, #56	; 0x38
 8000e66:	f002 f9ac 	bl	80031c2 <memset>
 8000e6a:	a80b      	add	r0, sp, #44	; 0x2c
 8000e6c:	f7ff f97a 	bl	8000164 <strlen>
 8000e70:	23c8      	movs	r3, #200	; 0xc8
 8000e72:	b282      	uxth	r2, r0
 8000e74:	a90b      	add	r1, sp, #44	; 0x2c
 8000e76:	4844      	ldr	r0, [pc, #272]	; (8000f88 <send_date_and_time+0x148>)
 8000e78:	f001 f9e2 	bl	8002240 <HAL_UART_Transmit>
 8000e7c:	f44f 73c8 	mov.w	r3, #400	; 0x190
 8000e80:	f44f 7280 	mov.w	r2, #256	; 0x100
 8000e84:	4941      	ldr	r1, [pc, #260]	; (8000f8c <send_date_and_time+0x14c>)
 8000e86:	4840      	ldr	r0, [pc, #256]	; (8000f88 <send_date_and_time+0x148>)
 8000e88:	f001 fa31 	bl	80022ee <HAL_UART_Receive>
 8000e8c:	2122      	movs	r1, #34	; 0x22
 8000e8e:	483f      	ldr	r0, [pc, #252]	; (8000f8c <send_date_and_time+0x14c>)
 8000e90:	f002 f9ec 	bl	800326c <strchr>
 8000e94:	1c44      	adds	r4, r0, #1
 8000e96:	d004      	beq.n	8000ea2 <send_date_and_time+0x62>
 8000e98:	2122      	movs	r1, #34	; 0x22
 8000e9a:	4620      	mov	r0, r4
 8000e9c:	f002 f9e6 	bl	800326c <strchr>
 8000ea0:	4605      	mov	r5, r0
 8000ea2:	f10d 0357 	add.w	r3, sp, #87	; 0x57
 8000ea6:	e003      	b.n	8000eb0 <send_date_and_time+0x70>
 8000ea8:	f814 2b01 	ldrb.w	r2, [r4], #1
 8000eac:	f803 2f01 	strb.w	r2, [r3, #1]!
 8000eb0:	42ac      	cmp	r4, r5
 8000eb2:	d1f9      	bne.n	8000ea8 <send_date_and_time+0x68>
 8000eb4:	ab07      	add	r3, sp, #28
 8000eb6:	9303      	str	r3, [sp, #12]
 8000eb8:	ab06      	add	r3, sp, #24
 8000eba:	9302      	str	r3, [sp, #8]
 8000ebc:	ab05      	add	r3, sp, #20
 8000ebe:	9301      	str	r3, [sp, #4]
 8000ec0:	ab08      	add	r3, sp, #32
 8000ec2:	9300      	str	r3, [sp, #0]
 8000ec4:	aa0a      	add	r2, sp, #40	; 0x28
 8000ec6:	ab09      	add	r3, sp, #36	; 0x24
 8000ec8:	4931      	ldr	r1, [pc, #196]	; (8000f90 <send_date_and_time+0x150>)
 8000eca:	a816      	add	r0, sp, #88	; 0x58
 8000ecc:	f002 f9a2 	bl	8003214 <siscanf>
 8000ed0:	9b0a      	ldr	r3, [sp, #40]	; 0x28
 8000ed2:	9a07      	ldr	r2, [sp, #28]
 8000ed4:	f503 63fa 	add.w	r3, r3, #2000	; 0x7d0
 8000ed8:	492e      	ldr	r1, [pc, #184]	; (8000f94 <send_date_and_time+0x154>)
 8000eda:	a80e      	add	r0, sp, #56	; 0x38
 8000edc:	930a      	str	r3, [sp, #40]	; 0x28
 8000ede:	f002 f979 	bl	80031d4 <siprintf>
 8000ee2:	a80e      	add	r0, sp, #56	; 0x38
 8000ee4:	f7ff f93e 	bl	8000164 <strlen>
 8000ee8:	23c8      	movs	r3, #200	; 0xc8
 8000eea:	b282      	uxth	r2, r0
 8000eec:	a90e      	add	r1, sp, #56	; 0x38
 8000eee:	482a      	ldr	r0, [pc, #168]	; (8000f98 <send_date_and_time+0x158>)
 8000ef0:	f001 f9a6 	bl	8002240 <HAL_UART_Transmit>
 8000ef4:	9a06      	ldr	r2, [sp, #24]
 8000ef6:	4929      	ldr	r1, [pc, #164]	; (8000f9c <send_date_and_time+0x15c>)
 8000ef8:	a80e      	add	r0, sp, #56	; 0x38
 8000efa:	f002 f96b 	bl	80031d4 <siprintf>
 8000efe:	a80e      	add	r0, sp, #56	; 0x38
 8000f00:	f7ff f930 	bl	8000164 <strlen>
 8000f04:	23c8      	movs	r3, #200	; 0xc8
 8000f06:	b282      	uxth	r2, r0
 8000f08:	a90e      	add	r1, sp, #56	; 0x38
 8000f0a:	4823      	ldr	r0, [pc, #140]	; (8000f98 <send_date_and_time+0x158>)
 8000f0c:	f001 f998 	bl	8002240 <HAL_UART_Transmit>
 8000f10:	9a05      	ldr	r2, [sp, #20]
 8000f12:	4923      	ldr	r1, [pc, #140]	; (8000fa0 <send_date_and_time+0x160>)
 8000f14:	a80e      	add	r0, sp, #56	; 0x38
 8000f16:	f002 f95d 	bl	80031d4 <siprintf>
 8000f1a:	a80e      	add	r0, sp, #56	; 0x38
 8000f1c:	f7ff f922 	bl	8000164 <strlen>
 8000f20:	23c8      	movs	r3, #200	; 0xc8
 8000f22:	b282      	uxth	r2, r0
 8000f24:	a90e      	add	r1, sp, #56	; 0x38
 8000f26:	481c      	ldr	r0, [pc, #112]	; (8000f98 <send_date_and_time+0x158>)
 8000f28:	f001 f98a 	bl	8002240 <HAL_UART_Transmit>
 8000f2c:	9a08      	ldr	r2, [sp, #32]
 8000f2e:	491d      	ldr	r1, [pc, #116]	; (8000fa4 <send_date_and_time+0x164>)
 8000f30:	a80e      	add	r0, sp, #56	; 0x38
 8000f32:	f002 f94f 	bl	80031d4 <siprintf>
 8000f36:	a80e      	add	r0, sp, #56	; 0x38
 8000f38:	f7ff f914 	bl	8000164 <strlen>
 8000f3c:	23c8      	movs	r3, #200	; 0xc8
 8000f3e:	b282      	uxth	r2, r0
 8000f40:	a90e      	add	r1, sp, #56	; 0x38
 8000f42:	4815      	ldr	r0, [pc, #84]	; (8000f98 <send_date_and_time+0x158>)
 8000f44:	f001 f97c 	bl	8002240 <HAL_UART_Transmit>
 8000f48:	9a09      	ldr	r2, [sp, #36]	; 0x24
 8000f4a:	4917      	ldr	r1, [pc, #92]	; (8000fa8 <send_date_and_time+0x168>)
 8000f4c:	a80e      	add	r0, sp, #56	; 0x38
 8000f4e:	f002 f941 	bl	80031d4 <siprintf>
 8000f52:	a80e      	add	r0, sp, #56	; 0x38
 8000f54:	f7ff f906 	bl	8000164 <strlen>
 8000f58:	23c8      	movs	r3, #200	; 0xc8
 8000f5a:	b282      	uxth	r2, r0
 8000f5c:	a90e      	add	r1, sp, #56	; 0x38
 8000f5e:	480e      	ldr	r0, [pc, #56]	; (8000f98 <send_date_and_time+0x158>)
 8000f60:	f001 f96e 	bl	8002240 <HAL_UART_Transmit>
 8000f64:	9a0a      	ldr	r2, [sp, #40]	; 0x28
 8000f66:	4911      	ldr	r1, [pc, #68]	; (8000fac <send_date_and_time+0x16c>)
 8000f68:	a80e      	add	r0, sp, #56	; 0x38
 8000f6a:	f002 f933 	bl	80031d4 <siprintf>
 8000f6e:	a80e      	add	r0, sp, #56	; 0x38
 8000f70:	f7ff f8f8 	bl	8000164 <strlen>
 8000f74:	23c8      	movs	r3, #200	; 0xc8
 8000f76:	b282      	uxth	r2, r0
 8000f78:	a90e      	add	r1, sp, #56	; 0x38
 8000f7a:	4807      	ldr	r0, [pc, #28]	; (8000f98 <send_date_and_time+0x158>)
 8000f7c:	f001 f960 	bl	8002240 <HAL_UART_Transmit>
 8000f80:	b027      	add	sp, #156	; 0x9c
 8000f82:	bd30      	pop	{r4, r5, pc}
 8000f84:	080047a6 	.word	0x080047a6
 8000f88:	20002048 	.word	0x20002048
 8000f8c:	20000456 	.word	0x20000456
 8000f90:	0800470a 	.word	0x0800470a
 8000f94:	0800471c 	.word	0x0800471c
 8000f98:	2000294c 	.word	0x2000294c
 8000f9c:	08004733 	.word	0x08004733
 8000fa0:	0800474a 	.word	0x0800474a
 8000fa4:	08004761 	.word	0x08004761
 8000fa8:	08004778 	.word	0x08004778
 8000fac:	0800478f 	.word	0x0800478f

08000fb0 <parse_display_request>:
 8000fb0:	b508      	push	{r3, lr}
 8000fb2:	4b37      	ldr	r3, [pc, #220]	; (8001090 <parse_display_request+0xe0>)
 8000fb4:	785a      	ldrb	r2, [r3, #1]
 8000fb6:	2a01      	cmp	r2, #1
 8000fb8:	d110      	bne.n	8000fdc <parse_display_request+0x2c>
 8000fba:	7899      	ldrb	r1, [r3, #2]
 8000fbc:	2910      	cmp	r1, #16
 8000fbe:	d112      	bne.n	8000fe6 <parse_display_request+0x36>
 8000fc0:	f44f 7280 	mov.w	r2, #256	; 0x100
 8000fc4:	4932      	ldr	r1, [pc, #200]	; (8001090 <parse_display_request+0xe0>)
 8000fc6:	4833      	ldr	r0, [pc, #204]	; (8001094 <parse_display_request+0xe4>)
 8000fc8:	f002 f8f0 	bl	80031ac <memcpy>
 8000fcc:	2300      	movs	r3, #0
 8000fce:	4a32      	ldr	r2, [pc, #200]	; (8001098 <parse_display_request+0xe8>)
 8000fd0:	7013      	strb	r3, [r2, #0]
 8000fd2:	4a32      	ldr	r2, [pc, #200]	; (800109c <parse_display_request+0xec>)
 8000fd4:	7013      	strb	r3, [r2, #0]
 8000fd6:	4b32      	ldr	r3, [pc, #200]	; (80010a0 <parse_display_request+0xf0>)
 8000fd8:	2201      	movs	r2, #1
 8000fda:	e00c      	b.n	8000ff6 <parse_display_request+0x46>
 8000fdc:	2a05      	cmp	r2, #5
 8000fde:	d102      	bne.n	8000fe6 <parse_display_request+0x36>
 8000fe0:	7899      	ldrb	r1, [r3, #2]
 8000fe2:	2905      	cmp	r1, #5
 8000fe4:	e7eb      	b.n	8000fbe <parse_display_request+0xe>
 8000fe6:	1ed1      	subs	r1, r2, #3
 8000fe8:	2901      	cmp	r1, #1
 8000fea:	d814      	bhi.n	8001016 <parse_display_request+0x66>
 8000fec:	7899      	ldrb	r1, [r3, #2]
 8000fee:	2902      	cmp	r1, #2
 8000ff0:	d10a      	bne.n	8001008 <parse_display_request+0x58>
 8000ff2:	2206      	movs	r2, #6
 8000ff4:	4b2a      	ldr	r3, [pc, #168]	; (80010a0 <parse_display_request+0xf0>)
 8000ff6:	701a      	strb	r2, [r3, #0]
 8000ff8:	f44f 7280 	mov.w	r2, #256	; 0x100
 8000ffc:	e8bd 4008 	ldmia.w	sp!, {r3, lr}
 8001000:	2100      	movs	r1, #0
 8001002:	4823      	ldr	r0, [pc, #140]	; (8001090 <parse_display_request+0xe0>)
 8001004:	f002 b8dd 	b.w	80031c2 <memset>
 8001008:	2a04      	cmp	r2, #4
 800100a:	d10d      	bne.n	8001028 <parse_display_request+0x78>
 800100c:	2903      	cmp	r1, #3
 800100e:	d1f3      	bne.n	8000ff8 <parse_display_request+0x48>
 8001010:	4b23      	ldr	r3, [pc, #140]	; (80010a0 <parse_display_request+0xf0>)
 8001012:	2207      	movs	r2, #7
 8001014:	e7ef      	b.n	8000ff6 <parse_display_request+0x46>
 8001016:	2a06      	cmp	r2, #6
 8001018:	d106      	bne.n	8001028 <parse_display_request+0x78>
 800101a:	789b      	ldrb	r3, [r3, #2]
 800101c:	2b03      	cmp	r3, #3
 800101e:	d1eb      	bne.n	8000ff8 <parse_display_request+0x48>
 8001020:	4820      	ldr	r0, [pc, #128]	; (80010a4 <parse_display_request+0xf4>)
 8001022:	f7ff fe55 	bl	8000cd0 <add_subscriber>
 8001026:	e7e7      	b.n	8000ff8 <parse_display_request+0x48>
 8001028:	2a05      	cmp	r2, #5
 800102a:	d109      	bne.n	8001040 <parse_display_request+0x90>
 800102c:	789a      	ldrb	r2, [r3, #2]
 800102e:	1f91      	subs	r1, r2, #6
 8001030:	2901      	cmp	r1, #1
 8001032:	d901      	bls.n	8001038 <parse_display_request+0x88>
 8001034:	2a03      	cmp	r2, #3
 8001036:	d1df      	bne.n	8000ff8 <parse_display_request+0x48>
 8001038:	79d8      	ldrb	r0, [r3, #7]
 800103a:	f7ff fddf 	bl	8000bfc <show_subscriber_with_index>
 800103e:	e7db      	b.n	8000ff8 <parse_display_request+0x48>
 8001040:	2a02      	cmp	r2, #2
 8001042:	d10a      	bne.n	800105a <parse_display_request+0xaa>
 8001044:	789b      	ldrb	r3, [r3, #2]
 8001046:	2b37      	cmp	r3, #55	; 0x37
 8001048:	d1d6      	bne.n	8000ff8 <parse_display_request+0x48>
 800104a:	f44f 7280 	mov.w	r2, #256	; 0x100
 800104e:	4910      	ldr	r1, [pc, #64]	; (8001090 <parse_display_request+0xe0>)
 8001050:	4815      	ldr	r0, [pc, #84]	; (80010a8 <parse_display_request+0xf8>)
 8001052:	f002 f8ab 	bl	80031ac <memcpy>
 8001056:	4b15      	ldr	r3, [pc, #84]	; (80010ac <parse_display_request+0xfc>)
 8001058:	e7be      	b.n	8000fd8 <parse_display_request+0x28>
 800105a:	2a09      	cmp	r2, #9
 800105c:	d107      	bne.n	800106e <parse_display_request+0xbe>
 800105e:	789a      	ldrb	r2, [r3, #2]
 8001060:	3a02      	subs	r2, #2
 8001062:	2a01      	cmp	r2, #1
 8001064:	d8c8      	bhi.n	8000ff8 <parse_display_request+0x48>
 8001066:	79d8      	ldrb	r0, [r3, #7]
 8001068:	f7ff fe78 	bl	8000d5c <show_text_message_index>
 800106c:	e7c4      	b.n	8000ff8 <parse_display_request+0x48>
 800106e:	2a08      	cmp	r2, #8
 8001070:	d103      	bne.n	800107a <parse_display_request+0xca>
 8001072:	789a      	ldrb	r2, [r3, #2]
 8001074:	2a03      	cmp	r2, #3
 8001076:	d1bf      	bne.n	8000ff8 <parse_display_request+0x48>
 8001078:	e7f5      	b.n	8001066 <parse_display_request+0xb6>
 800107a:	2a00      	cmp	r2, #0
 800107c:	d1bc      	bne.n	8000ff8 <parse_display_request+0x48>
 800107e:	789a      	ldrb	r2, [r3, #2]
 8001080:	2a06      	cmp	r2, #6
 8001082:	d0f0      	beq.n	8001066 <parse_display_request+0xb6>
 8001084:	2a12      	cmp	r2, #18
 8001086:	d1b7      	bne.n	8000ff8 <parse_display_request+0x48>
 8001088:	f7ff feda 	bl	8000e40 <send_date_and_time>
 800108c:	e7b4      	b.n	8000ff8 <parse_display_request+0x48>
 800108e:	bf00      	nop
 8001090:	20000657 	.word	0x20000657
 8001094:	20000556 	.word	0x20000556
 8001098:	20000000 	.word	0x20000000
 800109c:	20002990 	.word	0x20002990
 80010a0:	20000454 	.word	0x20000454
 80010a4:	2000065e 	.word	0x2000065e
 80010a8:	2000076c 	.word	0x2000076c
 80010ac:	20000455 	.word	0x20000455

080010b0 <display_uart_task_func>:
 80010b0:	b508      	push	{r3, lr}
 80010b2:	4b0a      	ldr	r3, [pc, #40]	; (80010dc <display_uart_task_func+0x2c>)
 80010b4:	490a      	ldr	r1, [pc, #40]	; (80010e0 <display_uart_task_func+0x30>)
 80010b6:	681b      	ldr	r3, [r3, #0]
 80010b8:	2201      	movs	r2, #1
 80010ba:	4419      	add	r1, r3
 80010bc:	4809      	ldr	r0, [pc, #36]	; (80010e4 <display_uart_task_func+0x34>)
 80010be:	f001 f972 	bl	80023a6 <HAL_UART_Receive_IT>
 80010c2:	2500      	movs	r5, #0
 80010c4:	4c08      	ldr	r4, [pc, #32]	; (80010e8 <display_uart_task_func+0x38>)
 80010c6:	7823      	ldrb	r3, [r4, #0]
 80010c8:	b11b      	cbz	r3, 80010d2 <display_uart_task_func+0x22>
 80010ca:	7025      	strb	r5, [r4, #0]
 80010cc:	f7ff ff70 	bl	8000fb0 <parse_display_request>
 80010d0:	e7f9      	b.n	80010c6 <display_uart_task_func+0x16>
 80010d2:	f44f 70fa 	mov.w	r0, #500	; 0x1f4
 80010d6:	f001 fdc1 	bl	8002c5c <vTaskDelay>
 80010da:	e7f4      	b.n	80010c6 <display_uart_task_func+0x16>
 80010dc:	20000758 	.word	0x20000758
 80010e0:	20000657 	.word	0x20000657
 80010e4:	2000294c 	.word	0x2000294c
 80010e8:	20000656 	.word	0x20000656

080010ec <call_detected>:
 80010ec:	b57f      	push	{r0, r1, r2, r3, r4, r5, r6, lr}
 80010ee:	4a24      	ldr	r2, [pc, #144]	; (8001180 <call_detected+0x94>)
 80010f0:	ab01      	add	r3, sp, #4
 80010f2:	6810      	ldr	r0, [r2, #0]
 80010f4:	6851      	ldr	r1, [r2, #4]
 80010f6:	8912      	ldrh	r2, [r2, #8]
 80010f8:	c303      	stmia	r3!, {r0, r1}
 80010fa:	2100      	movs	r1, #0
 80010fc:	801a      	strh	r2, [r3, #0]
 80010fe:	4821      	ldr	r0, [pc, #132]	; (8001184 <call_detected+0x98>)
 8001100:	f44f 7280 	mov.w	r2, #256	; 0x100
 8001104:	f002 f85d 	bl	80031c2 <memset>
 8001108:	a801      	add	r0, sp, #4
 800110a:	f7ff f82b 	bl	8000164 <strlen>
 800110e:	23c8      	movs	r3, #200	; 0xc8
 8001110:	b282      	uxth	r2, r0
 8001112:	a901      	add	r1, sp, #4
 8001114:	481c      	ldr	r0, [pc, #112]	; (8001188 <call_detected+0x9c>)
 8001116:	f001 f893 	bl	8002240 <HAL_UART_Transmit>
 800111a:	491a      	ldr	r1, [pc, #104]	; (8001184 <call_detected+0x98>)
 800111c:	f44f 7396 	mov.w	r3, #300	; 0x12c
 8001120:	f44f 7280 	mov.w	r2, #256	; 0x100
 8001124:	4818      	ldr	r0, [pc, #96]	; (8001188 <call_detected+0x9c>)
 8001126:	f001 f8e2 	bl	80022ee <HAL_UART_Receive>
 800112a:	4918      	ldr	r1, [pc, #96]	; (800118c <call_detected+0xa0>)
 800112c:	4815      	ldr	r0, [pc, #84]	; (8001184 <call_detected+0x98>)
 800112e:	f002 f8b2 	bl	8003296 <strstr>
 8001132:	b310      	cbz	r0, 800117a <call_detected+0x8e>
 8001134:	4d16      	ldr	r5, [pc, #88]	; (8001190 <call_detected+0xa4>)
 8001136:	782a      	ldrb	r2, [r5, #0]
 8001138:	2a01      	cmp	r2, #1
 800113a:	d11e      	bne.n	800117a <call_detected+0x8e>
 800113c:	2122      	movs	r1, #34	; 0x22
 800113e:	4811      	ldr	r0, [pc, #68]	; (8001184 <call_detected+0x98>)
 8001140:	f002 f894 	bl	800326c <strchr>
 8001144:	1c44      	adds	r4, r0, #1
 8001146:	d004      	beq.n	8001152 <call_detected+0x66>
 8001148:	2122      	movs	r1, #34	; 0x22
 800114a:	4620      	mov	r0, r4
 800114c:	f002 f88e 	bl	800326c <strchr>
 8001150:	4606      	mov	r6, r0
 8001152:	4b10      	ldr	r3, [pc, #64]	; (8001194 <call_detected+0xa8>)
 8001154:	4620      	mov	r0, r4
 8001156:	e003      	b.n	8001160 <call_detected+0x74>
 8001158:	f810 2b01 	ldrb.w	r2, [r0], #1
 800115c:	f803 2f01 	strb.w	r2, [r3, #1]!
 8001160:	42b0      	cmp	r0, r6
 8001162:	d1f9      	bne.n	8001158 <call_detected+0x6c>
 8001164:	220a      	movs	r2, #10
 8001166:	4b0c      	ldr	r3, [pc, #48]	; (8001198 <call_detected+0xac>)
 8001168:	1b00      	subs	r0, r0, r4
 800116a:	541a      	strb	r2, [r3, r0]
 800116c:	2300      	movs	r3, #0
 800116e:	702b      	strb	r3, [r5, #0]
 8001170:	2301      	movs	r3, #1
 8001172:	4a0a      	ldr	r2, [pc, #40]	; (800119c <call_detected+0xb0>)
 8001174:	7013      	strb	r3, [r2, #0]
 8001176:	4a0a      	ldr	r2, [pc, #40]	; (80011a0 <call_detected+0xb4>)
 8001178:	7013      	strb	r3, [r2, #0]
 800117a:	b004      	add	sp, #16
 800117c:	bd70      	pop	{r4, r5, r6, pc}
 800117e:	bf00      	nop
 8001180:	08004544 	.word	0x08004544
 8001184:	20000456 	.word	0x20000456
 8001188:	20002048 	.word	0x20002048
 800118c:	08004509 	.word	0x08004509
 8001190:	20000000 	.word	0x20000000
 8001194:	20000555 	.word	0x20000555
 8001198:	20000556 	.word	0x20000556
 800119c:	20002990 	.word	0x20002990
 80011a0:	20000454 	.word	0x20000454

080011a4 <sms_detected>:
 80011a4:	e92d 4ff0 	stmdb	sp!, {r4, r5, r6, r7, r8, r9, sl, fp, lr}
 80011a8:	b0ab      	sub	sp, #172	; 0xac
 80011aa:	2260      	movs	r2, #96	; 0x60
 80011ac:	2100      	movs	r1, #0
 80011ae:	a812      	add	r0, sp, #72	; 0x48
 80011b0:	f002 f807 	bl	80031c2 <memset>
 80011b4:	2214      	movs	r2, #20
 80011b6:	2100      	movs	r1, #0
 80011b8:	a801      	add	r0, sp, #4
 80011ba:	f002 f802 	bl	80031c2 <memset>
 80011be:	aa06      	add	r2, sp, #24
 80011c0:	4692      	mov	sl, r2
 80011c2:	4b3b      	ldr	r3, [pc, #236]	; (80012b0 <sms_detected+0x10c>)
 80011c4:	f103 0630 	add.w	r6, r3, #48	; 0x30
 80011c8:	4615      	mov	r5, r2
 80011ca:	6818      	ldr	r0, [r3, #0]
 80011cc:	6859      	ldr	r1, [r3, #4]
 80011ce:	3308      	adds	r3, #8
 80011d0:	c503      	stmia	r5!, {r0, r1}
 80011d2:	42b3      	cmp	r3, r6
 80011d4:	462a      	mov	r2, r5
 80011d6:	d1f7      	bne.n	80011c8 <sms_detected+0x24>
 80011d8:	4d36      	ldr	r5, [pc, #216]	; (80012b4 <sms_detected+0x110>)
 80011da:	4937      	ldr	r1, [pc, #220]	; (80012b8 <sms_detected+0x114>)
 80011dc:	682a      	ldr	r2, [r5, #0]
 80011de:	a801      	add	r0, sp, #4
 80011e0:	3201      	adds	r2, #1
 80011e2:	f001 fff7 	bl	80031d4 <siprintf>
 80011e6:	a801      	add	r0, sp, #4
 80011e8:	f7fe ffbc 	bl	8000164 <strlen>
 80011ec:	23c8      	movs	r3, #200	; 0xc8
 80011ee:	b282      	uxth	r2, r0
 80011f0:	a901      	add	r1, sp, #4
 80011f2:	4832      	ldr	r0, [pc, #200]	; (80012bc <sms_detected+0x118>)
 80011f4:	f001 f824 	bl	8002240 <HAL_UART_Transmit>
 80011f8:	f44f 737a 	mov.w	r3, #1000	; 0x3e8
 80011fc:	2260      	movs	r2, #96	; 0x60
 80011fe:	a912      	add	r1, sp, #72	; 0x48
 8001200:	482e      	ldr	r0, [pc, #184]	; (80012bc <sms_detected+0x118>)
 8001202:	f001 f874 	bl	80022ee <HAL_UART_Receive>
 8001206:	492e      	ldr	r1, [pc, #184]	; (80012c0 <sms_detected+0x11c>)
 8001208:	a812      	add	r0, sp, #72	; 0x48
 800120a:	f7fe ffa1 	bl	8000150 <strcmp>
 800120e:	46a9      	mov	r9, r5
 8001210:	2800      	cmp	r0, #0
 8001212:	d045      	beq.n	80012a0 <sms_detected+0xfc>
 8001214:	492b      	ldr	r1, [pc, #172]	; (80012c4 <sms_detected+0x120>)
 8001216:	a812      	add	r0, sp, #72	; 0x48
 8001218:	f002 f83d 	bl	8003296 <strstr>
 800121c:	f110 0b01 	adds.w	fp, r0, #1
 8001220:	d004      	beq.n	800122c <sms_detected+0x88>
 8001222:	2122      	movs	r1, #34	; 0x22
 8001224:	4658      	mov	r0, fp
 8001226:	f002 f821 	bl	800326c <strchr>
 800122a:	4604      	mov	r4, r0
 800122c:	2670      	movs	r6, #112	; 0x70
 800122e:	4f26      	ldr	r7, [pc, #152]	; (80012c8 <sms_detected+0x124>)
 8001230:	4d26      	ldr	r5, [pc, #152]	; (80012cc <sms_detected+0x128>)
 8001232:	f8d7 8000 	ldr.w	r8, [r7]
 8001236:	4658      	mov	r0, fp
 8001238:	fb06 f608 	mul.w	r6, r6, r8
 800123c:	1e73      	subs	r3, r6, #1
 800123e:	442b      	add	r3, r5
 8001240:	e003      	b.n	800124a <sms_detected+0xa6>
 8001242:	f810 2b01 	ldrb.w	r2, [r0], #1
 8001246:	f803 2f01 	strb.w	r2, [r3, #1]!
 800124a:	42a0      	cmp	r0, r4
 800124c:	d1f9      	bne.n	8001242 <sms_detected+0x9e>
 800124e:	1c44      	adds	r4, r0, #1
 8001250:	210a      	movs	r1, #10
 8001252:	4620      	mov	r0, r4
 8001254:	f002 f80a 	bl	800326c <strchr>
 8001258:	f110 0b01 	adds.w	fp, r0, #1
 800125c:	d004      	beq.n	8001268 <sms_detected+0xc4>
 800125e:	210d      	movs	r1, #13
 8001260:	4658      	mov	r0, fp
 8001262:	f002 f803 	bl	800326c <strchr>
 8001266:	4604      	mov	r4, r0
 8001268:	360f      	adds	r6, #15
 800126a:	4435      	add	r5, r6
 800126c:	45a3      	cmp	fp, r4
 800126e:	d11a      	bne.n	80012a6 <sms_detected+0x102>
 8001270:	f108 0301 	add.w	r3, r8, #1
 8001274:	2b14      	cmp	r3, #20
 8001276:	603b      	str	r3, [r7, #0]
 8001278:	bf08      	it	eq
 800127a:	2300      	moveq	r3, #0
 800127c:	f8d9 2000 	ldr.w	r2, [r9]
 8001280:	4650      	mov	r0, sl
 8001282:	f102 0201 	add.w	r2, r2, #1
 8001286:	f8c9 2000 	str.w	r2, [r9]
 800128a:	bf08      	it	eq
 800128c:	603b      	streq	r3, [r7, #0]
 800128e:	f7fe ff69 	bl	8000164 <strlen>
 8001292:	f44f 7396 	mov.w	r3, #300	; 0x12c
 8001296:	b282      	uxth	r2, r0
 8001298:	4651      	mov	r1, sl
 800129a:	480d      	ldr	r0, [pc, #52]	; (80012d0 <sms_detected+0x12c>)
 800129c:	f000 ffd0 	bl	8002240 <HAL_UART_Transmit>
 80012a0:	b02b      	add	sp, #172	; 0xac
 80012a2:	e8bd 8ff0 	ldmia.w	sp!, {r4, r5, r6, r7, r8, r9, sl, fp, pc}
 80012a6:	f81b 3b01 	ldrb.w	r3, [fp], #1
 80012aa:	f805 3f01 	strb.w	r3, [r5, #1]!
 80012ae:	e7dd      	b.n	800126c <sms_detected+0xc8>
 80012b0:	08004853 	.word	0x08004853
 80012b4:	20000768 	.word	0x20000768
 80012b8:	0800465e 	.word	0x0800465e
 80012bc:	20002048 	.word	0x20002048
 80012c0:	08004657 	.word	0x08004657
 80012c4:	08004678 	.word	0x08004678
 80012c8:	20000764 	.word	0x20000764
 80012cc:	2000208c 	.word	0x2000208c
 80012d0:	2000294c 	.word	0x2000294c

080012d4 <interrupt_task_func>:
 80012d4:	b51f      	push	{r0, r1, r2, r3, r4, lr}
 80012d6:	4a19      	ldr	r2, [pc, #100]	; (800133c <interrupt_task_func+0x68>)
 80012d8:	ab01      	add	r3, sp, #4
 80012da:	6810      	ldr	r0, [r2, #0]
 80012dc:	6851      	ldr	r1, [r2, #4]
 80012de:	8912      	ldrh	r2, [r2, #8]
 80012e0:	c303      	stmia	r3!, {r0, r1}
 80012e2:	4c17      	ldr	r4, [pc, #92]	; (8001340 <interrupt_task_func+0x6c>)
 80012e4:	4d17      	ldr	r5, [pc, #92]	; (8001344 <interrupt_task_func+0x70>)
 80012e6:	4e18      	ldr	r6, [pc, #96]	; (8001348 <interrupt_task_func+0x74>)
 80012e8:	801a      	strh	r2, [r3, #0]
 80012ea:	6823      	ldr	r3, [r4, #0]
 80012ec:	b303      	cbz	r3, 8001330 <interrupt_task_func+0x5c>
 80012ee:	2300      	movs	r3, #0
 80012f0:	a801      	add	r0, sp, #4
 80012f2:	6023      	str	r3, [r4, #0]
 80012f4:	f7fe ff36 	bl	8000164 <strlen>
 80012f8:	23c8      	movs	r3, #200	; 0xc8
 80012fa:	b282      	uxth	r2, r0
 80012fc:	a901      	add	r1, sp, #4
 80012fe:	4628      	mov	r0, r5
 8001300:	f000 ff9e 	bl	8002240 <HAL_UART_Transmit>
 8001304:	f44f 73fa 	mov.w	r3, #500	; 0x1f4
 8001308:	f44f 7280 	mov.w	r2, #256	; 0x100
 800130c:	490e      	ldr	r1, [pc, #56]	; (8001348 <interrupt_task_func+0x74>)
 800130e:	4628      	mov	r0, r5
 8001310:	f000 ffed 	bl	80022ee <HAL_UART_Receive>
 8001314:	7ab3      	ldrb	r3, [r6, #10]
 8001316:	2b33      	cmp	r3, #51	; 0x33
 8001318:	d105      	bne.n	8001326 <interrupt_task_func+0x52>
 800131a:	f7ff fee7 	bl	80010ec <call_detected>
 800131e:	2006      	movs	r0, #6
 8001320:	f000 f9c2 	bl	80016a8 <HAL_NVIC_EnableIRQ>
 8001324:	e7e1      	b.n	80012ea <interrupt_task_func+0x16>
 8001326:	2b30      	cmp	r3, #48	; 0x30
 8001328:	d1f9      	bne.n	800131e <interrupt_task_func+0x4a>
 800132a:	f7ff ff3b 	bl	80011a4 <sms_detected>
 800132e:	e7f6      	b.n	800131e <interrupt_task_func+0x4a>
 8001330:	f44f 70fa 	mov.w	r0, #500	; 0x1f4
 8001334:	f001 fc92 	bl	8002c5c <vTaskDelay>
 8001338:	e7d7      	b.n	80012ea <interrupt_task_func+0x16>
 800133a:	bf00      	nop
 800133c:	08004640 	.word	0x08004640
 8001340:	2000075c 	.word	0x2000075c
 8001344:	20002048 	.word	0x20002048
 8001348:	20000456 	.word	0x20000456

0800134c <HAL_TIM_PeriodElapsedCallback>:
 800134c:	6802      	ldr	r2, [r0, #0]
 800134e:	4b03      	ldr	r3, [pc, #12]	; (800135c <HAL_TIM_PeriodElapsedCallback+0x10>)
 8001350:	429a      	cmp	r2, r3
 8001352:	d101      	bne.n	8001358 <HAL_TIM_PeriodElapsedCallback+0xc>
 8001354:	f000 b950 	b.w	80015f8 <HAL_IncTick>
 8001358:	4770      	bx	lr
 800135a:	bf00      	nop
 800135c:	40012c00 	.word	0x40012c00

08001360 <HAL_MspInit>:
 8001360:	4b11      	ldr	r3, [pc, #68]	; (80013a8 <HAL_MspInit+0x48>)
 8001362:	b507      	push	{r0, r1, r2, lr}
 8001364:	699a      	ldr	r2, [r3, #24]
 8001366:	210f      	movs	r1, #15
 8001368:	f042 0201 	orr.w	r2, r2, #1
 800136c:	619a      	str	r2, [r3, #24]
 800136e:	699a      	ldr	r2, [r3, #24]
 8001370:	f06f 0001 	mvn.w	r0, #1
 8001374:	f002 0201 	and.w	r2, r2, #1
 8001378:	9200      	str	r2, [sp, #0]
 800137a:	9a00      	ldr	r2, [sp, #0]
 800137c:	69da      	ldr	r2, [r3, #28]
 800137e:	f042 5280 	orr.w	r2, r2, #268435456	; 0x10000000
 8001382:	61da      	str	r2, [r3, #28]
 8001384:	69db      	ldr	r3, [r3, #28]
 8001386:	2200      	movs	r2, #0
 8001388:	f003 5380 	and.w	r3, r3, #268435456	; 0x10000000
 800138c:	9301      	str	r3, [sp, #4]
 800138e:	9b01      	ldr	r3, [sp, #4]
 8001390:	f000 f956 	bl	8001640 <HAL_NVIC_SetPriority>
 8001394:	4a05      	ldr	r2, [pc, #20]	; (80013ac <HAL_MspInit+0x4c>)
 8001396:	6853      	ldr	r3, [r2, #4]
 8001398:	f023 63e0 	bic.w	r3, r3, #117440512	; 0x7000000
 800139c:	f043 7300 	orr.w	r3, r3, #33554432	; 0x2000000
 80013a0:	6053      	str	r3, [r2, #4]
 80013a2:	b003      	add	sp, #12
 80013a4:	f85d fb04 	ldr.w	pc, [sp], #4
 80013a8:	40021000 	.word	0x40021000
 80013ac:	40010000 	.word	0x40010000

080013b0 <HAL_UART_MspInit>:
 80013b0:	2210      	movs	r2, #16
 80013b2:	b510      	push	{r4, lr}
 80013b4:	4604      	mov	r4, r0
 80013b6:	b088      	sub	sp, #32
 80013b8:	eb0d 0002 	add.w	r0, sp, r2
 80013bc:	2100      	movs	r1, #0
 80013be:	f001 ff00 	bl	80031c2 <memset>
 80013c2:	6823      	ldr	r3, [r4, #0]
 80013c4:	4a2f      	ldr	r2, [pc, #188]	; (8001484 <HAL_UART_MspInit+0xd4>)
 80013c6:	4293      	cmp	r3, r2
 80013c8:	d129      	bne.n	800141e <HAL_UART_MspInit+0x6e>
 80013ca:	4b2f      	ldr	r3, [pc, #188]	; (8001488 <HAL_UART_MspInit+0xd8>)
 80013cc:	f44f 7100 	mov.w	r1, #512	; 0x200
 80013d0:	699a      	ldr	r2, [r3, #24]
 80013d2:	482e      	ldr	r0, [pc, #184]	; (800148c <HAL_UART_MspInit+0xdc>)
 80013d4:	f442 4280 	orr.w	r2, r2, #16384	; 0x4000
 80013d8:	619a      	str	r2, [r3, #24]
 80013da:	699a      	ldr	r2, [r3, #24]
 80013dc:	f402 4280 	and.w	r2, r2, #16384	; 0x4000
 80013e0:	9200      	str	r2, [sp, #0]
 80013e2:	9a00      	ldr	r2, [sp, #0]
 80013e4:	699a      	ldr	r2, [r3, #24]
 80013e6:	f042 0204 	orr.w	r2, r2, #4
 80013ea:	619a      	str	r2, [r3, #24]
 80013ec:	699b      	ldr	r3, [r3, #24]
 80013ee:	f003 0304 	and.w	r3, r3, #4
 80013f2:	9301      	str	r3, [sp, #4]
 80013f4:	9b01      	ldr	r3, [sp, #4]
 80013f6:	2302      	movs	r3, #2
 80013f8:	e9cd 1304 	strd	r1, r3, [sp, #16]
 80013fc:	2303      	movs	r3, #3
 80013fe:	a904      	add	r1, sp, #16
 8001400:	9307      	str	r3, [sp, #28]
 8001402:	f000 f9a7 	bl	8001754 <HAL_GPIO_Init>
 8001406:	f44f 6080 	mov.w	r0, #1024	; 0x400
 800140a:	2300      	movs	r3, #0
 800140c:	a904      	add	r1, sp, #16
 800140e:	e9cd 0304 	strd	r0, r3, [sp, #16]
 8001412:	481e      	ldr	r0, [pc, #120]	; (800148c <HAL_UART_MspInit+0xdc>)
 8001414:	9306      	str	r3, [sp, #24]
 8001416:	f000 f99d 	bl	8001754 <HAL_GPIO_Init>
 800141a:	b008      	add	sp, #32
 800141c:	bd10      	pop	{r4, pc}
 800141e:	4a1c      	ldr	r2, [pc, #112]	; (8001490 <HAL_UART_MspInit+0xe0>)
 8001420:	4293      	cmp	r3, r2
 8001422:	d1fa      	bne.n	800141a <HAL_UART_MspInit+0x6a>
 8001424:	4b18      	ldr	r3, [pc, #96]	; (8001488 <HAL_UART_MspInit+0xd8>)
 8001426:	a904      	add	r1, sp, #16
 8001428:	69da      	ldr	r2, [r3, #28]
 800142a:	4818      	ldr	r0, [pc, #96]	; (800148c <HAL_UART_MspInit+0xdc>)
 800142c:	f442 3200 	orr.w	r2, r2, #131072	; 0x20000
 8001430:	61da      	str	r2, [r3, #28]
 8001432:	69da      	ldr	r2, [r3, #28]
 8001434:	2400      	movs	r4, #0
 8001436:	f402 3200 	and.w	r2, r2, #131072	; 0x20000
 800143a:	9202      	str	r2, [sp, #8]
 800143c:	9a02      	ldr	r2, [sp, #8]
 800143e:	699a      	ldr	r2, [r3, #24]
 8001440:	f042 0204 	orr.w	r2, r2, #4
 8001444:	619a      	str	r2, [r3, #24]
 8001446:	699b      	ldr	r3, [r3, #24]
 8001448:	2204      	movs	r2, #4
 800144a:	f003 0304 	and.w	r3, r3, #4
 800144e:	9303      	str	r3, [sp, #12]
 8001450:	9b03      	ldr	r3, [sp, #12]
 8001452:	2302      	movs	r3, #2
 8001454:	e9cd 2304 	strd	r2, r3, [sp, #16]
 8001458:	2303      	movs	r3, #3
 800145a:	9307      	str	r3, [sp, #28]
 800145c:	f000 f97a 	bl	8001754 <HAL_GPIO_Init>
 8001460:	2308      	movs	r3, #8
 8001462:	a904      	add	r1, sp, #16
 8001464:	4809      	ldr	r0, [pc, #36]	; (800148c <HAL_UART_MspInit+0xdc>)
 8001466:	e9cd 3404 	strd	r3, r4, [sp, #16]
 800146a:	9406      	str	r4, [sp, #24]
 800146c:	f000 f972 	bl	8001754 <HAL_GPIO_Init>
 8001470:	4622      	mov	r2, r4
 8001472:	2105      	movs	r1, #5
 8001474:	2026      	movs	r0, #38	; 0x26
 8001476:	f000 f8e3 	bl	8001640 <HAL_NVIC_SetPriority>
 800147a:	2026      	movs	r0, #38	; 0x26
 800147c:	f000 f914 	bl	80016a8 <HAL_NVIC_EnableIRQ>
 8001480:	e7cb      	b.n	800141a <HAL_UART_MspInit+0x6a>
 8001482:	bf00      	nop
 8001484:	40013800 	.word	0x40013800
 8001488:	40021000 	.word	0x40021000
 800148c:	40010800 	.word	0x40010800
 8001490:	40004400 	.word	0x40004400

08001494 <HAL_InitTick>:
 8001494:	b510      	push	{r4, lr}
 8001496:	4601      	mov	r1, r0
 8001498:	b088      	sub	sp, #32
 800149a:	2200      	movs	r2, #0
 800149c:	2019      	movs	r0, #25
 800149e:	f000 f8cf 	bl	8001640 <HAL_NVIC_SetPriority>
 80014a2:	2019      	movs	r0, #25
 80014a4:	f000 f900 	bl	80016a8 <HAL_NVIC_EnableIRQ>
 80014a8:	4b14      	ldr	r3, [pc, #80]	; (80014fc <HAL_InitTick+0x68>)
 80014aa:	a901      	add	r1, sp, #4
 80014ac:	699a      	ldr	r2, [r3, #24]
 80014ae:	a803      	add	r0, sp, #12
 80014b0:	f442 6200 	orr.w	r2, r2, #2048	; 0x800
 80014b4:	619a      	str	r2, [r3, #24]
 80014b6:	699b      	ldr	r3, [r3, #24]
 80014b8:	4c11      	ldr	r4, [pc, #68]	; (8001500 <HAL_InitTick+0x6c>)
 80014ba:	f403 6300 	and.w	r3, r3, #2048	; 0x800
 80014be:	9302      	str	r3, [sp, #8]
 80014c0:	9b02      	ldr	r3, [sp, #8]
 80014c2:	f000 fcc9 	bl	8001e58 <HAL_RCC_GetClockConfig>
 80014c6:	f000 fcb7 	bl	8001e38 <HAL_RCC_GetPCLK2Freq>
 80014ca:	4b0e      	ldr	r3, [pc, #56]	; (8001504 <HAL_InitTick+0x70>)
 80014cc:	6023      	str	r3, [r4, #0]
 80014ce:	f240 33e7 	movw	r3, #999	; 0x3e7
 80014d2:	60e3      	str	r3, [r4, #12]
 80014d4:	4b0c      	ldr	r3, [pc, #48]	; (8001508 <HAL_InitTick+0x74>)
 80014d6:	fbb0 f0f3 	udiv	r0, r0, r3
 80014da:	2300      	movs	r3, #0
 80014dc:	3801      	subs	r0, #1
 80014de:	6060      	str	r0, [r4, #4]
 80014e0:	4620      	mov	r0, r4
 80014e2:	6123      	str	r3, [r4, #16]
 80014e4:	60a3      	str	r3, [r4, #8]
 80014e6:	f000 fddf 	bl	80020a8 <HAL_TIM_Base_Init>
 80014ea:	b920      	cbnz	r0, 80014f6 <HAL_InitTick+0x62>
 80014ec:	4620      	mov	r0, r4
 80014ee:	f000 fcd3 	bl	8001e98 <HAL_TIM_Base_Start_IT>
 80014f2:	b008      	add	sp, #32
 80014f4:	bd10      	pop	{r4, pc}
 80014f6:	2001      	movs	r0, #1
 80014f8:	e7fb      	b.n	80014f2 <HAL_InitTick+0x5e>
 80014fa:	bf00      	nop
 80014fc:	40021000 	.word	0x40021000
 8001500:	20002994 	.word	0x20002994
 8001504:	40012c00 	.word	0x40012c00
 8001508:	000f4240 	.word	0x000f4240

0800150c <NMI_Handler>:
 800150c:	e7fe      	b.n	800150c <NMI_Handler>

0800150e <HardFault_Handler>:
 800150e:	e7fe      	b.n	800150e <HardFault_Handler>

08001510 <MemManage_Handler>:
 8001510:	e7fe      	b.n	8001510 <MemManage_Handler>

08001512 <BusFault_Handler>:
 8001512:	e7fe      	b.n	8001512 <BusFault_Handler>

08001514 <UsageFault_Handler>:
 8001514:	e7fe      	b.n	8001514 <UsageFault_Handler>

08001516 <DebugMon_Handler>:
 8001516:	4770      	bx	lr

08001518 <EXTI0_IRQHandler>:
 8001518:	b508      	push	{r3, lr}
 800151a:	2001      	movs	r0, #1
 800151c:	f000 f9fc 	bl	8001918 <HAL_GPIO_EXTI_IRQHandler>
 8001520:	2201      	movs	r2, #1
 8001522:	4b01      	ldr	r3, [pc, #4]	; (8001528 <EXTI0_IRQHandler+0x10>)
 8001524:	601a      	str	r2, [r3, #0]
 8001526:	bd08      	pop	{r3, pc}
 8001528:	2000075c 	.word	0x2000075c

0800152c <TIM1_UP_IRQHandler>:
 800152c:	4801      	ldr	r0, [pc, #4]	; (8001534 <TIM1_UP_IRQHandler+0x8>)
 800152e:	f000 bce1 	b.w	8001ef4 <HAL_TIM_IRQHandler>
 8001532:	bf00      	nop
 8001534:	20002994 	.word	0x20002994

08001538 <USART2_IRQHandler>:
 8001538:	4801      	ldr	r0, [pc, #4]	; (8001540 <USART2_IRQHandler+0x8>)
 800153a:	f000 bf97 	b.w	800246c <HAL_UART_IRQHandler>
 800153e:	bf00      	nop
 8001540:	2000294c 	.word	0x2000294c

08001544 <_sbrk>:
 8001544:	4b0b      	ldr	r3, [pc, #44]	; (8001574 <_sbrk+0x30>)
 8001546:	b510      	push	{r4, lr}
 8001548:	6819      	ldr	r1, [r3, #0]
 800154a:	4602      	mov	r2, r0
 800154c:	b909      	cbnz	r1, 8001552 <_sbrk+0xe>
 800154e:	490a      	ldr	r1, [pc, #40]	; (8001578 <_sbrk+0x34>)
 8001550:	6019      	str	r1, [r3, #0]
 8001552:	6818      	ldr	r0, [r3, #0]
 8001554:	4909      	ldr	r1, [pc, #36]	; (800157c <_sbrk+0x38>)
 8001556:	4c0a      	ldr	r4, [pc, #40]	; (8001580 <_sbrk+0x3c>)
 8001558:	4402      	add	r2, r0
 800155a:	1b09      	subs	r1, r1, r4
 800155c:	428a      	cmp	r2, r1
 800155e:	d906      	bls.n	800156e <_sbrk+0x2a>
 8001560:	f001 fdfa 	bl	8003158 <__errno>
 8001564:	230c      	movs	r3, #12
 8001566:	6003      	str	r3, [r0, #0]
 8001568:	f04f 30ff 	mov.w	r0, #4294967295	; 0xffffffff
 800156c:	bd10      	pop	{r4, pc}
 800156e:	601a      	str	r2, [r3, #0]
 8001570:	e7fc      	b.n	800156c <_sbrk+0x28>
 8001572:	bf00      	nop
 8001574:	2000086c 	.word	0x2000086c
 8001578:	200029e8 	.word	0x200029e8
 800157c:	20005000 	.word	0x20005000
 8001580:	00000400 	.word	0x00000400

08001584 <SystemInit>:
 8001584:	4770      	bx	lr
	...

08001588 <Reset_Handler>:
 8001588:	2100      	movs	r1, #0
 800158a:	e003      	b.n	8001594 <LoopCopyDataInit>

0800158c <CopyDataInit>:
 800158c:	4b0b      	ldr	r3, [pc, #44]	; (80015bc <LoopFillZerobss+0x14>)
 800158e:	585b      	ldr	r3, [r3, r1]
 8001590:	5043      	str	r3, [r0, r1]
 8001592:	3104      	adds	r1, #4

08001594 <LoopCopyDataInit>:
 8001594:	480a      	ldr	r0, [pc, #40]	; (80015c0 <LoopFillZerobss+0x18>)
 8001596:	4b0b      	ldr	r3, [pc, #44]	; (80015c4 <LoopFillZerobss+0x1c>)
 8001598:	1842      	adds	r2, r0, r1
 800159a:	429a      	cmp	r2, r3
 800159c:	d3f6      	bcc.n	800158c <CopyDataInit>
 800159e:	4a0a      	ldr	r2, [pc, #40]	; (80015c8 <LoopFillZerobss+0x20>)
 80015a0:	e002      	b.n	80015a8 <LoopFillZerobss>

080015a2 <FillZerobss>:
 80015a2:	2300      	movs	r3, #0
 80015a4:	f842 3b04 	str.w	r3, [r2], #4

080015a8 <LoopFillZerobss>:
 80015a8:	4b08      	ldr	r3, [pc, #32]	; (80015cc <LoopFillZerobss+0x24>)
 80015aa:	429a      	cmp	r2, r3
 80015ac:	d3f9      	bcc.n	80015a2 <FillZerobss>
 80015ae:	f7ff ffe9 	bl	8001584 <SystemInit>
 80015b2:	f001 fdd7 	bl	8003164 <__libc_init_array>
 80015b6:	f7ff f901 	bl	80007bc <main>
 80015ba:	4770      	bx	lr
 80015bc:	08004a64 	.word	0x08004a64
 80015c0:	20000000 	.word	0x20000000
 80015c4:	200001e4 	.word	0x200001e4
 80015c8:	200001e4 	.word	0x200001e4
 80015cc:	200029e4 	.word	0x200029e4

080015d0 <ADC1_2_IRQHandler>:
 80015d0:	e7fe      	b.n	80015d0 <ADC1_2_IRQHandler>
	...

080015d4 <HAL_Init>:
 80015d4:	4a07      	ldr	r2, [pc, #28]	; (80015f4 <HAL_Init+0x20>)
 80015d6:	b508      	push	{r3, lr}
 80015d8:	6813      	ldr	r3, [r2, #0]
 80015da:	2003      	movs	r0, #3
 80015dc:	f043 0310 	orr.w	r3, r3, #16
 80015e0:	6013      	str	r3, [r2, #0]
 80015e2:	f000 f81b 	bl	800161c <HAL_NVIC_SetPriorityGrouping>
 80015e6:	2000      	movs	r0, #0
 80015e8:	f7ff ff54 	bl	8001494 <HAL_InitTick>
 80015ec:	f7ff feb8 	bl	8001360 <HAL_MspInit>
 80015f0:	2000      	movs	r0, #0
 80015f2:	bd08      	pop	{r3, pc}
 80015f4:	40022000 	.word	0x40022000

080015f8 <HAL_IncTick>:
 80015f8:	4a03      	ldr	r2, [pc, #12]	; (8001608 <HAL_IncTick+0x10>)
 80015fa:	4b04      	ldr	r3, [pc, #16]	; (800160c <HAL_IncTick+0x14>)
 80015fc:	6811      	ldr	r1, [r2, #0]
 80015fe:	781b      	ldrb	r3, [r3, #0]
 8001600:	440b      	add	r3, r1
 8001602:	6013      	str	r3, [r2, #0]
 8001604:	4770      	bx	lr
 8001606:	bf00      	nop
 8001608:	200029dc 	.word	0x200029dc
 800160c:	20000008 	.word	0x20000008

08001610 <HAL_GetTick>:
 8001610:	4b01      	ldr	r3, [pc, #4]	; (8001618 <HAL_GetTick+0x8>)
 8001612:	6818      	ldr	r0, [r3, #0]
 8001614:	4770      	bx	lr
 8001616:	bf00      	nop
 8001618:	200029dc 	.word	0x200029dc

0800161c <HAL_NVIC_SetPriorityGrouping>:
 800161c:	4a07      	ldr	r2, [pc, #28]	; (800163c <HAL_NVIC_SetPriorityGrouping+0x20>)
 800161e:	0200      	lsls	r0, r0, #8
 8001620:	68d3      	ldr	r3, [r2, #12]
 8001622:	f400 60e0 	and.w	r0, r0, #1792	; 0x700
 8001626:	f423 63e0 	bic.w	r3, r3, #1792	; 0x700
 800162a:	041b      	lsls	r3, r3, #16
 800162c:	0c1b      	lsrs	r3, r3, #16
 800162e:	f043 63bf 	orr.w	r3, r3, #100139008	; 0x5f80000
 8001632:	f443 3300 	orr.w	r3, r3, #131072	; 0x20000
 8001636:	4303      	orrs	r3, r0
 8001638:	60d3      	str	r3, [r2, #12]
 800163a:	4770      	bx	lr
 800163c:	e000ed00 	.word	0xe000ed00

08001640 <HAL_NVIC_SetPriority>:
 8001640:	4b17      	ldr	r3, [pc, #92]	; (80016a0 <HAL_NVIC_SetPriority+0x60>)
 8001642:	b570      	push	{r4, r5, r6, lr}
 8001644:	68dc      	ldr	r4, [r3, #12]
 8001646:	f04f 36ff 	mov.w	r6, #4294967295	; 0xffffffff
 800164a:	f3c4 2402 	ubfx	r4, r4, #8, #3
 800164e:	f1c4 0507 	rsb	r5, r4, #7
 8001652:	2d04      	cmp	r5, #4
 8001654:	f104 0304 	add.w	r3, r4, #4
 8001658:	bf28      	it	cs
 800165a:	2504      	movcs	r5, #4
 800165c:	2b06      	cmp	r3, #6
 800165e:	bf98      	it	ls
 8001660:	2400      	movls	r4, #0
 8001662:	fa06 f305 	lsl.w	r3, r6, r5
 8001666:	bf88      	it	hi
 8001668:	3c03      	subhi	r4, #3
 800166a:	ea21 0303 	bic.w	r3, r1, r3
 800166e:	40a3      	lsls	r3, r4
 8001670:	fa06 f404 	lsl.w	r4, r6, r4
 8001674:	ea22 0404 	bic.w	r4, r2, r4
 8001678:	2800      	cmp	r0, #0
 800167a:	ea43 0304 	orr.w	r3, r3, r4
 800167e:	bfa8      	it	ge
 8001680:	f100 4060 	addge.w	r0, r0, #3758096384	; 0xe0000000
 8001684:	ea4f 1303 	mov.w	r3, r3, lsl #4
 8001688:	bfb8      	it	lt
 800168a:	4a06      	ldrlt	r2, [pc, #24]	; (80016a4 <HAL_NVIC_SetPriority+0x64>)
 800168c:	b2db      	uxtb	r3, r3
 800168e:	bfab      	itete	ge
 8001690:	f500 4061 	addge.w	r0, r0, #57600	; 0xe100
 8001694:	f000 000f 	andlt.w	r0, r0, #15
 8001698:	f880 3300 	strbge.w	r3, [r0, #768]	; 0x300
 800169c:	5413      	strblt	r3, [r2, r0]
 800169e:	bd70      	pop	{r4, r5, r6, pc}
 80016a0:	e000ed00 	.word	0xe000ed00
 80016a4:	e000ed14 	.word	0xe000ed14

080016a8 <HAL_NVIC_EnableIRQ>:
 80016a8:	2800      	cmp	r0, #0
 80016aa:	db08      	blt.n	80016be <HAL_NVIC_EnableIRQ+0x16>
 80016ac:	2301      	movs	r3, #1
 80016ae:	0942      	lsrs	r2, r0, #5
 80016b0:	f000 001f 	and.w	r0, r0, #31
 80016b4:	fa03 f000 	lsl.w	r0, r3, r0
 80016b8:	4b01      	ldr	r3, [pc, #4]	; (80016c0 <HAL_NVIC_EnableIRQ+0x18>)
 80016ba:	f843 0022 	str.w	r0, [r3, r2, lsl #2]
 80016be:	4770      	bx	lr
 80016c0:	e000e100 	.word	0xe000e100

080016c4 <HAL_DMA_Abort_IT>:
 80016c4:	f890 3021 	ldrb.w	r3, [r0, #33]	; 0x21
 80016c8:	b510      	push	{r4, lr}
 80016ca:	2b02      	cmp	r3, #2
 80016cc:	d003      	beq.n	80016d6 <HAL_DMA_Abort_IT+0x12>
 80016ce:	2304      	movs	r3, #4
 80016d0:	6383      	str	r3, [r0, #56]	; 0x38
 80016d2:	2001      	movs	r0, #1
 80016d4:	bd10      	pop	{r4, pc}
 80016d6:	6803      	ldr	r3, [r0, #0]
 80016d8:	681a      	ldr	r2, [r3, #0]
 80016da:	f022 020e 	bic.w	r2, r2, #14
 80016de:	601a      	str	r2, [r3, #0]
 80016e0:	681a      	ldr	r2, [r3, #0]
 80016e2:	f022 0201 	bic.w	r2, r2, #1
 80016e6:	601a      	str	r2, [r3, #0]
 80016e8:	4a18      	ldr	r2, [pc, #96]	; (800174c <HAL_DMA_Abort_IT+0x88>)
 80016ea:	4293      	cmp	r3, r2
 80016ec:	d01f      	beq.n	800172e <HAL_DMA_Abort_IT+0x6a>
 80016ee:	3214      	adds	r2, #20
 80016f0:	4293      	cmp	r3, r2
 80016f2:	d01e      	beq.n	8001732 <HAL_DMA_Abort_IT+0x6e>
 80016f4:	3214      	adds	r2, #20
 80016f6:	4293      	cmp	r3, r2
 80016f8:	d01d      	beq.n	8001736 <HAL_DMA_Abort_IT+0x72>
 80016fa:	3214      	adds	r2, #20
 80016fc:	4293      	cmp	r3, r2
 80016fe:	d01d      	beq.n	800173c <HAL_DMA_Abort_IT+0x78>
 8001700:	3214      	adds	r2, #20
 8001702:	4293      	cmp	r3, r2
 8001704:	d01d      	beq.n	8001742 <HAL_DMA_Abort_IT+0x7e>
 8001706:	3214      	adds	r2, #20
 8001708:	4293      	cmp	r3, r2
 800170a:	bf0c      	ite	eq
 800170c:	f44f 1380 	moveq.w	r3, #1048576	; 0x100000
 8001710:	f04f 7380 	movne.w	r3, #16777216	; 0x1000000
 8001714:	4a0e      	ldr	r2, [pc, #56]	; (8001750 <HAL_DMA_Abort_IT+0x8c>)
 8001716:	2400      	movs	r4, #0
 8001718:	6053      	str	r3, [r2, #4]
 800171a:	2301      	movs	r3, #1
 800171c:	f880 3021 	strb.w	r3, [r0, #33]	; 0x21
 8001720:	6b43      	ldr	r3, [r0, #52]	; 0x34
 8001722:	f880 4020 	strb.w	r4, [r0, #32]
 8001726:	b17b      	cbz	r3, 8001748 <HAL_DMA_Abort_IT+0x84>
 8001728:	4798      	blx	r3
 800172a:	4620      	mov	r0, r4
 800172c:	e7d2      	b.n	80016d4 <HAL_DMA_Abort_IT+0x10>
 800172e:	2301      	movs	r3, #1
 8001730:	e7f0      	b.n	8001714 <HAL_DMA_Abort_IT+0x50>
 8001732:	2310      	movs	r3, #16
 8001734:	e7ee      	b.n	8001714 <HAL_DMA_Abort_IT+0x50>
 8001736:	f44f 7380 	mov.w	r3, #256	; 0x100
 800173a:	e7eb      	b.n	8001714 <HAL_DMA_Abort_IT+0x50>
 800173c:	f44f 5380 	mov.w	r3, #4096	; 0x1000
 8001740:	e7e8      	b.n	8001714 <HAL_DMA_Abort_IT+0x50>
 8001742:	f44f 3380 	mov.w	r3, #65536	; 0x10000
 8001746:	e7e5      	b.n	8001714 <HAL_DMA_Abort_IT+0x50>
 8001748:	4618      	mov	r0, r3
 800174a:	e7c3      	b.n	80016d4 <HAL_DMA_Abort_IT+0x10>
 800174c:	40020008 	.word	0x40020008
 8001750:	40020000 	.word	0x40020000

08001754 <HAL_GPIO_Init>:
 8001754:	e92d 4ff7 	stmdb	sp!, {r0, r1, r2, r4, r5, r6, r7, r8, r9, sl, fp, lr}
 8001758:	2400      	movs	r4, #0
 800175a:	4626      	mov	r6, r4
 800175c:	4b65      	ldr	r3, [pc, #404]	; (80018f4 <HAL_GPIO_Init+0x1a0>)
 800175e:	f8df c1a4 	ldr.w	ip, [pc, #420]	; 8001904 <HAL_GPIO_Init+0x1b0>
 8001762:	f8df e1a4 	ldr.w	lr, [pc, #420]	; 8001908 <HAL_GPIO_Init+0x1b4>
 8001766:	680a      	ldr	r2, [r1, #0]
 8001768:	fa32 f506 	lsrs.w	r5, r2, r6
 800176c:	d102      	bne.n	8001774 <HAL_GPIO_Init+0x20>
 800176e:	b003      	add	sp, #12
 8001770:	e8bd 8ff0 	ldmia.w	sp!, {r4, r5, r6, r7, r8, r9, sl, fp, pc}
 8001774:	f04f 0801 	mov.w	r8, #1
 8001778:	fa08 f806 	lsl.w	r8, r8, r6
 800177c:	ea02 0208 	and.w	r2, r2, r8
 8001780:	4590      	cmp	r8, r2
 8001782:	d17e      	bne.n	8001882 <HAL_GPIO_Init+0x12e>
 8001784:	684d      	ldr	r5, [r1, #4]
 8001786:	2d12      	cmp	r5, #18
 8001788:	f000 80a9 	beq.w	80018de <HAL_GPIO_Init+0x18a>
 800178c:	f200 8082 	bhi.w	8001894 <HAL_GPIO_Init+0x140>
 8001790:	2d02      	cmp	r5, #2
 8001792:	f000 80a1 	beq.w	80018d8 <HAL_GPIO_Init+0x184>
 8001796:	d876      	bhi.n	8001886 <HAL_GPIO_Init+0x132>
 8001798:	2d00      	cmp	r5, #0
 800179a:	f000 8088 	beq.w	80018ae <HAL_GPIO_Init+0x15a>
 800179e:	2d01      	cmp	r5, #1
 80017a0:	f000 8098 	beq.w	80018d4 <HAL_GPIO_Init+0x180>
 80017a4:	f04f 090f 	mov.w	r9, #15
 80017a8:	2aff      	cmp	r2, #255	; 0xff
 80017aa:	bf93      	iteet	ls
 80017ac:	4682      	movls	sl, r0
 80017ae:	f106 4580 	addhi.w	r5, r6, #1073741824	; 0x40000000
 80017b2:	3d08      	subhi	r5, #8
 80017b4:	f8d0 b000 	ldrls.w	fp, [r0]
 80017b8:	bf92      	itee	ls
 80017ba:	00b5      	lslls	r5, r6, #2
 80017bc:	f8d0 b004 	ldrhi.w	fp, [r0, #4]
 80017c0:	00ad      	lslhi	r5, r5, #2
 80017c2:	fa09 f805 	lsl.w	r8, r9, r5
 80017c6:	ea2b 0808 	bic.w	r8, fp, r8
 80017ca:	fa04 f505 	lsl.w	r5, r4, r5
 80017ce:	bf88      	it	hi
 80017d0:	f100 0a04 	addhi.w	sl, r0, #4
 80017d4:	ea48 0505 	orr.w	r5, r8, r5
 80017d8:	f8ca 5000 	str.w	r5, [sl]
 80017dc:	f8d1 a004 	ldr.w	sl, [r1, #4]
 80017e0:	f01a 5f80 	tst.w	sl, #268435456	; 0x10000000
 80017e4:	d04d      	beq.n	8001882 <HAL_GPIO_Init+0x12e>
 80017e6:	4f44      	ldr	r7, [pc, #272]	; (80018f8 <HAL_GPIO_Init+0x1a4>)
 80017e8:	f026 0803 	bic.w	r8, r6, #3
 80017ec:	69bd      	ldr	r5, [r7, #24]
 80017ee:	f108 4880 	add.w	r8, r8, #1073741824	; 0x40000000
 80017f2:	f045 0501 	orr.w	r5, r5, #1
 80017f6:	61bd      	str	r5, [r7, #24]
 80017f8:	69bd      	ldr	r5, [r7, #24]
 80017fa:	f508 3880 	add.w	r8, r8, #65536	; 0x10000
 80017fe:	f005 0501 	and.w	r5, r5, #1
 8001802:	9501      	str	r5, [sp, #4]
 8001804:	f006 0b03 	and.w	fp, r6, #3
 8001808:	9d01      	ldr	r5, [sp, #4]
 800180a:	ea4f 0b8b 	mov.w	fp, fp, lsl #2
 800180e:	f8d8 5008 	ldr.w	r5, [r8, #8]
 8001812:	fa09 f90b 	lsl.w	r9, r9, fp
 8001816:	ea25 0909 	bic.w	r9, r5, r9
 800181a:	4d38      	ldr	r5, [pc, #224]	; (80018fc <HAL_GPIO_Init+0x1a8>)
 800181c:	42a8      	cmp	r0, r5
 800181e:	d063      	beq.n	80018e8 <HAL_GPIO_Init+0x194>
 8001820:	f505 6580 	add.w	r5, r5, #1024	; 0x400
 8001824:	42a8      	cmp	r0, r5
 8001826:	d061      	beq.n	80018ec <HAL_GPIO_Init+0x198>
 8001828:	f505 6580 	add.w	r5, r5, #1024	; 0x400
 800182c:	42a8      	cmp	r0, r5
 800182e:	d05f      	beq.n	80018f0 <HAL_GPIO_Init+0x19c>
 8001830:	f505 6580 	add.w	r5, r5, #1024	; 0x400
 8001834:	42a8      	cmp	r0, r5
 8001836:	bf0c      	ite	eq
 8001838:	2503      	moveq	r5, #3
 800183a:	2504      	movne	r5, #4
 800183c:	fa05 f50b 	lsl.w	r5, r5, fp
 8001840:	ea45 0509 	orr.w	r5, r5, r9
 8001844:	f8c8 5008 	str.w	r5, [r8, #8]
 8001848:	681d      	ldr	r5, [r3, #0]
 800184a:	f41a 3f80 	tst.w	sl, #65536	; 0x10000
 800184e:	bf14      	ite	ne
 8001850:	4315      	orrne	r5, r2
 8001852:	4395      	biceq	r5, r2
 8001854:	601d      	str	r5, [r3, #0]
 8001856:	685d      	ldr	r5, [r3, #4]
 8001858:	f41a 3f00 	tst.w	sl, #131072	; 0x20000
 800185c:	bf14      	ite	ne
 800185e:	4315      	orrne	r5, r2
 8001860:	4395      	biceq	r5, r2
 8001862:	605d      	str	r5, [r3, #4]
 8001864:	689d      	ldr	r5, [r3, #8]
 8001866:	f41a 1f80 	tst.w	sl, #1048576	; 0x100000
 800186a:	bf14      	ite	ne
 800186c:	4315      	orrne	r5, r2
 800186e:	4395      	biceq	r5, r2
 8001870:	609d      	str	r5, [r3, #8]
 8001872:	68dd      	ldr	r5, [r3, #12]
 8001874:	f41a 1f00 	tst.w	sl, #2097152	; 0x200000
 8001878:	bf14      	ite	ne
 800187a:	432a      	orrne	r2, r5
 800187c:	ea25 0202 	biceq.w	r2, r5, r2
 8001880:	60da      	str	r2, [r3, #12]
 8001882:	3601      	adds	r6, #1
 8001884:	e76f      	b.n	8001766 <HAL_GPIO_Init+0x12>
 8001886:	2d03      	cmp	r5, #3
 8001888:	d022      	beq.n	80018d0 <HAL_GPIO_Init+0x17c>
 800188a:	2d11      	cmp	r5, #17
 800188c:	d18a      	bne.n	80017a4 <HAL_GPIO_Init+0x50>
 800188e:	68cc      	ldr	r4, [r1, #12]
 8001890:	3404      	adds	r4, #4
 8001892:	e787      	b.n	80017a4 <HAL_GPIO_Init+0x50>
 8001894:	4f1a      	ldr	r7, [pc, #104]	; (8001900 <HAL_GPIO_Init+0x1ac>)
 8001896:	42bd      	cmp	r5, r7
 8001898:	d009      	beq.n	80018ae <HAL_GPIO_Init+0x15a>
 800189a:	d812      	bhi.n	80018c2 <HAL_GPIO_Init+0x16e>
 800189c:	f8df 906c 	ldr.w	r9, [pc, #108]	; 800190c <HAL_GPIO_Init+0x1b8>
 80018a0:	454d      	cmp	r5, r9
 80018a2:	d004      	beq.n	80018ae <HAL_GPIO_Init+0x15a>
 80018a4:	f509 3980 	add.w	r9, r9, #65536	; 0x10000
 80018a8:	454d      	cmp	r5, r9
 80018aa:	f47f af7b 	bne.w	80017a4 <HAL_GPIO_Init+0x50>
 80018ae:	688c      	ldr	r4, [r1, #8]
 80018b0:	b1c4      	cbz	r4, 80018e4 <HAL_GPIO_Init+0x190>
 80018b2:	2c01      	cmp	r4, #1
 80018b4:	bf0c      	ite	eq
 80018b6:	f8c0 8010 	streq.w	r8, [r0, #16]
 80018ba:	f8c0 8014 	strne.w	r8, [r0, #20]
 80018be:	2408      	movs	r4, #8
 80018c0:	e770      	b.n	80017a4 <HAL_GPIO_Init+0x50>
 80018c2:	4565      	cmp	r5, ip
 80018c4:	d0f3      	beq.n	80018ae <HAL_GPIO_Init+0x15a>
 80018c6:	4575      	cmp	r5, lr
 80018c8:	d0f1      	beq.n	80018ae <HAL_GPIO_Init+0x15a>
 80018ca:	f8df 9044 	ldr.w	r9, [pc, #68]	; 8001910 <HAL_GPIO_Init+0x1bc>
 80018ce:	e7eb      	b.n	80018a8 <HAL_GPIO_Init+0x154>
 80018d0:	2400      	movs	r4, #0
 80018d2:	e767      	b.n	80017a4 <HAL_GPIO_Init+0x50>
 80018d4:	68cc      	ldr	r4, [r1, #12]
 80018d6:	e765      	b.n	80017a4 <HAL_GPIO_Init+0x50>
 80018d8:	68cc      	ldr	r4, [r1, #12]
 80018da:	3408      	adds	r4, #8
 80018dc:	e762      	b.n	80017a4 <HAL_GPIO_Init+0x50>
 80018de:	68cc      	ldr	r4, [r1, #12]
 80018e0:	340c      	adds	r4, #12
 80018e2:	e75f      	b.n	80017a4 <HAL_GPIO_Init+0x50>
 80018e4:	2404      	movs	r4, #4
 80018e6:	e75d      	b.n	80017a4 <HAL_GPIO_Init+0x50>
 80018e8:	2500      	movs	r5, #0
 80018ea:	e7a7      	b.n	800183c <HAL_GPIO_Init+0xe8>
 80018ec:	2501      	movs	r5, #1
 80018ee:	e7a5      	b.n	800183c <HAL_GPIO_Init+0xe8>
 80018f0:	2502      	movs	r5, #2
 80018f2:	e7a3      	b.n	800183c <HAL_GPIO_Init+0xe8>
 80018f4:	40010400 	.word	0x40010400
 80018f8:	40021000 	.word	0x40021000
 80018fc:	40010800 	.word	0x40010800
 8001900:	10210000 	.word	0x10210000
 8001904:	10310000 	.word	0x10310000
 8001908:	10320000 	.word	0x10320000
 800190c:	10110000 	.word	0x10110000
 8001910:	10220000 	.word	0x10220000

08001914 <HAL_GPIO_EXTI_Callback>:
 8001914:	4770      	bx	lr
	...

08001918 <HAL_GPIO_EXTI_IRQHandler>:
 8001918:	b508      	push	{r3, lr}
 800191a:	4b04      	ldr	r3, [pc, #16]	; (800192c <HAL_GPIO_EXTI_IRQHandler+0x14>)
 800191c:	6959      	ldr	r1, [r3, #20]
 800191e:	4201      	tst	r1, r0
 8001920:	d002      	beq.n	8001928 <HAL_GPIO_EXTI_IRQHandler+0x10>
 8001922:	6158      	str	r0, [r3, #20]
 8001924:	f7ff fff6 	bl	8001914 <HAL_GPIO_EXTI_Callback>
 8001928:	bd08      	pop	{r3, pc}
 800192a:	bf00      	nop
 800192c:	40010400 	.word	0x40010400

08001930 <HAL_RCC_OscConfig>:
 8001930:	e92d 41f3 	stmdb	sp!, {r0, r1, r4, r5, r6, r7, r8, lr}
 8001934:	4605      	mov	r5, r0
 8001936:	b908      	cbnz	r0, 800193c <HAL_RCC_OscConfig+0xc>
 8001938:	2001      	movs	r0, #1
 800193a:	e03c      	b.n	80019b6 <HAL_RCC_OscConfig+0x86>
 800193c:	6803      	ldr	r3, [r0, #0]
 800193e:	07db      	lsls	r3, r3, #31
 8001940:	d410      	bmi.n	8001964 <HAL_RCC_OscConfig+0x34>
 8001942:	682b      	ldr	r3, [r5, #0]
 8001944:	079f      	lsls	r7, r3, #30
 8001946:	d45d      	bmi.n	8001a04 <HAL_RCC_OscConfig+0xd4>
 8001948:	682b      	ldr	r3, [r5, #0]
 800194a:	0719      	lsls	r1, r3, #28
 800194c:	f100 8094 	bmi.w	8001a78 <HAL_RCC_OscConfig+0x148>
 8001950:	682b      	ldr	r3, [r5, #0]
 8001952:	075a      	lsls	r2, r3, #29
 8001954:	f100 80be 	bmi.w	8001ad4 <HAL_RCC_OscConfig+0x1a4>
 8001958:	69e8      	ldr	r0, [r5, #28]
 800195a:	2800      	cmp	r0, #0
 800195c:	f040 812c 	bne.w	8001bb8 <HAL_RCC_OscConfig+0x288>
 8001960:	2000      	movs	r0, #0
 8001962:	e028      	b.n	80019b6 <HAL_RCC_OscConfig+0x86>
 8001964:	4c8f      	ldr	r4, [pc, #572]	; (8001ba4 <HAL_RCC_OscConfig+0x274>)
 8001966:	6863      	ldr	r3, [r4, #4]
 8001968:	f003 030c 	and.w	r3, r3, #12
 800196c:	2b04      	cmp	r3, #4
 800196e:	d007      	beq.n	8001980 <HAL_RCC_OscConfig+0x50>
 8001970:	6863      	ldr	r3, [r4, #4]
 8001972:	f003 030c 	and.w	r3, r3, #12
 8001976:	2b08      	cmp	r3, #8
 8001978:	d109      	bne.n	800198e <HAL_RCC_OscConfig+0x5e>
 800197a:	6863      	ldr	r3, [r4, #4]
 800197c:	03de      	lsls	r6, r3, #15
 800197e:	d506      	bpl.n	800198e <HAL_RCC_OscConfig+0x5e>
 8001980:	6823      	ldr	r3, [r4, #0]
 8001982:	039c      	lsls	r4, r3, #14
 8001984:	d5dd      	bpl.n	8001942 <HAL_RCC_OscConfig+0x12>
 8001986:	686b      	ldr	r3, [r5, #4]
 8001988:	2b00      	cmp	r3, #0
 800198a:	d1da      	bne.n	8001942 <HAL_RCC_OscConfig+0x12>
 800198c:	e7d4      	b.n	8001938 <HAL_RCC_OscConfig+0x8>
 800198e:	686b      	ldr	r3, [r5, #4]
 8001990:	f5b3 3f80 	cmp.w	r3, #65536	; 0x10000
 8001994:	d112      	bne.n	80019bc <HAL_RCC_OscConfig+0x8c>
 8001996:	6823      	ldr	r3, [r4, #0]
 8001998:	f443 3380 	orr.w	r3, r3, #65536	; 0x10000
 800199c:	6023      	str	r3, [r4, #0]
 800199e:	f7ff fe37 	bl	8001610 <HAL_GetTick>
 80019a2:	4606      	mov	r6, r0
 80019a4:	6823      	ldr	r3, [r4, #0]
 80019a6:	0398      	lsls	r0, r3, #14
 80019a8:	d4cb      	bmi.n	8001942 <HAL_RCC_OscConfig+0x12>
 80019aa:	f7ff fe31 	bl	8001610 <HAL_GetTick>
 80019ae:	1b80      	subs	r0, r0, r6
 80019b0:	2864      	cmp	r0, #100	; 0x64
 80019b2:	d9f7      	bls.n	80019a4 <HAL_RCC_OscConfig+0x74>
 80019b4:	2003      	movs	r0, #3
 80019b6:	b002      	add	sp, #8
 80019b8:	e8bd 81f0 	ldmia.w	sp!, {r4, r5, r6, r7, r8, pc}
 80019bc:	b99b      	cbnz	r3, 80019e6 <HAL_RCC_OscConfig+0xb6>
 80019be:	6823      	ldr	r3, [r4, #0]
 80019c0:	f423 3380 	bic.w	r3, r3, #65536	; 0x10000
 80019c4:	6023      	str	r3, [r4, #0]
 80019c6:	6823      	ldr	r3, [r4, #0]
 80019c8:	f423 2380 	bic.w	r3, r3, #262144	; 0x40000
 80019cc:	6023      	str	r3, [r4, #0]
 80019ce:	f7ff fe1f 	bl	8001610 <HAL_GetTick>
 80019d2:	4606      	mov	r6, r0
 80019d4:	6823      	ldr	r3, [r4, #0]
 80019d6:	0399      	lsls	r1, r3, #14
 80019d8:	d5b3      	bpl.n	8001942 <HAL_RCC_OscConfig+0x12>
 80019da:	f7ff fe19 	bl	8001610 <HAL_GetTick>
 80019de:	1b80      	subs	r0, r0, r6
 80019e0:	2864      	cmp	r0, #100	; 0x64
 80019e2:	d9f7      	bls.n	80019d4 <HAL_RCC_OscConfig+0xa4>
 80019e4:	e7e6      	b.n	80019b4 <HAL_RCC_OscConfig+0x84>
 80019e6:	f5b3 2fa0 	cmp.w	r3, #327680	; 0x50000
 80019ea:	6823      	ldr	r3, [r4, #0]
 80019ec:	d103      	bne.n	80019f6 <HAL_RCC_OscConfig+0xc6>
 80019ee:	f443 2380 	orr.w	r3, r3, #262144	; 0x40000
 80019f2:	6023      	str	r3, [r4, #0]
 80019f4:	e7cf      	b.n	8001996 <HAL_RCC_OscConfig+0x66>
 80019f6:	f423 3380 	bic.w	r3, r3, #65536	; 0x10000
 80019fa:	6023      	str	r3, [r4, #0]
 80019fc:	6823      	ldr	r3, [r4, #0]
 80019fe:	f423 2380 	bic.w	r3, r3, #262144	; 0x40000
 8001a02:	e7cb      	b.n	800199c <HAL_RCC_OscConfig+0x6c>
 8001a04:	4c67      	ldr	r4, [pc, #412]	; (8001ba4 <HAL_RCC_OscConfig+0x274>)
 8001a06:	6863      	ldr	r3, [r4, #4]
 8001a08:	f013 0f0c 	tst.w	r3, #12
 8001a0c:	d007      	beq.n	8001a1e <HAL_RCC_OscConfig+0xee>
 8001a0e:	6863      	ldr	r3, [r4, #4]
 8001a10:	f003 030c 	and.w	r3, r3, #12
 8001a14:	2b08      	cmp	r3, #8
 8001a16:	d110      	bne.n	8001a3a <HAL_RCC_OscConfig+0x10a>
 8001a18:	6863      	ldr	r3, [r4, #4]
 8001a1a:	03da      	lsls	r2, r3, #15
 8001a1c:	d40d      	bmi.n	8001a3a <HAL_RCC_OscConfig+0x10a>
 8001a1e:	6823      	ldr	r3, [r4, #0]
 8001a20:	079b      	lsls	r3, r3, #30
 8001a22:	d502      	bpl.n	8001a2a <HAL_RCC_OscConfig+0xfa>
 8001a24:	692b      	ldr	r3, [r5, #16]
 8001a26:	2b01      	cmp	r3, #1
 8001a28:	d186      	bne.n	8001938 <HAL_RCC_OscConfig+0x8>
 8001a2a:	6823      	ldr	r3, [r4, #0]
 8001a2c:	696a      	ldr	r2, [r5, #20]
 8001a2e:	f023 03f8 	bic.w	r3, r3, #248	; 0xf8
 8001a32:	ea43 03c2 	orr.w	r3, r3, r2, lsl #3
 8001a36:	6023      	str	r3, [r4, #0]
 8001a38:	e786      	b.n	8001948 <HAL_RCC_OscConfig+0x18>
 8001a3a:	692a      	ldr	r2, [r5, #16]
 8001a3c:	4b5a      	ldr	r3, [pc, #360]	; (8001ba8 <HAL_RCC_OscConfig+0x278>)
 8001a3e:	b16a      	cbz	r2, 8001a5c <HAL_RCC_OscConfig+0x12c>
 8001a40:	2201      	movs	r2, #1
 8001a42:	601a      	str	r2, [r3, #0]
 8001a44:	f7ff fde4 	bl	8001610 <HAL_GetTick>
 8001a48:	4606      	mov	r6, r0
 8001a4a:	6823      	ldr	r3, [r4, #0]
 8001a4c:	079f      	lsls	r7, r3, #30
 8001a4e:	d4ec      	bmi.n	8001a2a <HAL_RCC_OscConfig+0xfa>
 8001a50:	f7ff fdde 	bl	8001610 <HAL_GetTick>
 8001a54:	1b80      	subs	r0, r0, r6
 8001a56:	2802      	cmp	r0, #2
 8001a58:	d9f7      	bls.n	8001a4a <HAL_RCC_OscConfig+0x11a>
 8001a5a:	e7ab      	b.n	80019b4 <HAL_RCC_OscConfig+0x84>
 8001a5c:	601a      	str	r2, [r3, #0]
 8001a5e:	f7ff fdd7 	bl	8001610 <HAL_GetTick>
 8001a62:	4606      	mov	r6, r0
 8001a64:	6823      	ldr	r3, [r4, #0]
 8001a66:	0798      	lsls	r0, r3, #30
 8001a68:	f57f af6e 	bpl.w	8001948 <HAL_RCC_OscConfig+0x18>
 8001a6c:	f7ff fdd0 	bl	8001610 <HAL_GetTick>
 8001a70:	1b80      	subs	r0, r0, r6
 8001a72:	2802      	cmp	r0, #2
 8001a74:	d9f6      	bls.n	8001a64 <HAL_RCC_OscConfig+0x134>
 8001a76:	e79d      	b.n	80019b4 <HAL_RCC_OscConfig+0x84>
 8001a78:	69aa      	ldr	r2, [r5, #24]
 8001a7a:	4c4a      	ldr	r4, [pc, #296]	; (8001ba4 <HAL_RCC_OscConfig+0x274>)
 8001a7c:	4b4b      	ldr	r3, [pc, #300]	; (8001bac <HAL_RCC_OscConfig+0x27c>)
 8001a7e:	b1da      	cbz	r2, 8001ab8 <HAL_RCC_OscConfig+0x188>
 8001a80:	2201      	movs	r2, #1
 8001a82:	601a      	str	r2, [r3, #0]
 8001a84:	f7ff fdc4 	bl	8001610 <HAL_GetTick>
 8001a88:	4606      	mov	r6, r0
 8001a8a:	6a63      	ldr	r3, [r4, #36]	; 0x24
 8001a8c:	079b      	lsls	r3, r3, #30
 8001a8e:	d50d      	bpl.n	8001aac <HAL_RCC_OscConfig+0x17c>
 8001a90:	f44f 52fa 	mov.w	r2, #8000	; 0x1f40
 8001a94:	4b46      	ldr	r3, [pc, #280]	; (8001bb0 <HAL_RCC_OscConfig+0x280>)
 8001a96:	681b      	ldr	r3, [r3, #0]
 8001a98:	fbb3 f3f2 	udiv	r3, r3, r2
 8001a9c:	9301      	str	r3, [sp, #4]
 8001a9e:	bf00      	nop
 8001aa0:	9b01      	ldr	r3, [sp, #4]
 8001aa2:	1e5a      	subs	r2, r3, #1
 8001aa4:	9201      	str	r2, [sp, #4]
 8001aa6:	2b00      	cmp	r3, #0
 8001aa8:	d1f9      	bne.n	8001a9e <HAL_RCC_OscConfig+0x16e>
 8001aaa:	e751      	b.n	8001950 <HAL_RCC_OscConfig+0x20>
 8001aac:	f7ff fdb0 	bl	8001610 <HAL_GetTick>
 8001ab0:	1b80      	subs	r0, r0, r6
 8001ab2:	2802      	cmp	r0, #2
 8001ab4:	d9e9      	bls.n	8001a8a <HAL_RCC_OscConfig+0x15a>
 8001ab6:	e77d      	b.n	80019b4 <HAL_RCC_OscConfig+0x84>
 8001ab8:	601a      	str	r2, [r3, #0]
 8001aba:	f7ff fda9 	bl	8001610 <HAL_GetTick>
 8001abe:	4606      	mov	r6, r0
 8001ac0:	6a63      	ldr	r3, [r4, #36]	; 0x24
 8001ac2:	079f      	lsls	r7, r3, #30
 8001ac4:	f57f af44 	bpl.w	8001950 <HAL_RCC_OscConfig+0x20>
 8001ac8:	f7ff fda2 	bl	8001610 <HAL_GetTick>
 8001acc:	1b80      	subs	r0, r0, r6
 8001ace:	2802      	cmp	r0, #2
 8001ad0:	d9f6      	bls.n	8001ac0 <HAL_RCC_OscConfig+0x190>
 8001ad2:	e76f      	b.n	80019b4 <HAL_RCC_OscConfig+0x84>
 8001ad4:	4c33      	ldr	r4, [pc, #204]	; (8001ba4 <HAL_RCC_OscConfig+0x274>)
 8001ad6:	69e3      	ldr	r3, [r4, #28]
 8001ad8:	00d8      	lsls	r0, r3, #3
 8001ada:	d424      	bmi.n	8001b26 <HAL_RCC_OscConfig+0x1f6>
 8001adc:	2701      	movs	r7, #1
 8001ade:	69e3      	ldr	r3, [r4, #28]
 8001ae0:	f043 5380 	orr.w	r3, r3, #268435456	; 0x10000000
 8001ae4:	61e3      	str	r3, [r4, #28]
 8001ae6:	69e3      	ldr	r3, [r4, #28]
 8001ae8:	f003 5380 	and.w	r3, r3, #268435456	; 0x10000000
 8001aec:	9300      	str	r3, [sp, #0]
 8001aee:	9b00      	ldr	r3, [sp, #0]
 8001af0:	4e30      	ldr	r6, [pc, #192]	; (8001bb4 <HAL_RCC_OscConfig+0x284>)
 8001af2:	6833      	ldr	r3, [r6, #0]
 8001af4:	05d9      	lsls	r1, r3, #23
 8001af6:	d518      	bpl.n	8001b2a <HAL_RCC_OscConfig+0x1fa>
 8001af8:	68eb      	ldr	r3, [r5, #12]
 8001afa:	2b01      	cmp	r3, #1
 8001afc:	d126      	bne.n	8001b4c <HAL_RCC_OscConfig+0x21c>
 8001afe:	6a23      	ldr	r3, [r4, #32]
 8001b00:	f043 0301 	orr.w	r3, r3, #1
 8001b04:	6223      	str	r3, [r4, #32]
 8001b06:	f7ff fd83 	bl	8001610 <HAL_GetTick>
 8001b0a:	f241 3688 	movw	r6, #5000	; 0x1388
 8001b0e:	4680      	mov	r8, r0
 8001b10:	6a23      	ldr	r3, [r4, #32]
 8001b12:	079b      	lsls	r3, r3, #30
 8001b14:	d53f      	bpl.n	8001b96 <HAL_RCC_OscConfig+0x266>
 8001b16:	2f00      	cmp	r7, #0
 8001b18:	f43f af1e 	beq.w	8001958 <HAL_RCC_OscConfig+0x28>
 8001b1c:	69e3      	ldr	r3, [r4, #28]
 8001b1e:	f023 5380 	bic.w	r3, r3, #268435456	; 0x10000000
 8001b22:	61e3      	str	r3, [r4, #28]
 8001b24:	e718      	b.n	8001958 <HAL_RCC_OscConfig+0x28>
 8001b26:	2700      	movs	r7, #0
 8001b28:	e7e2      	b.n	8001af0 <HAL_RCC_OscConfig+0x1c0>
 8001b2a:	6833      	ldr	r3, [r6, #0]
 8001b2c:	f443 7380 	orr.w	r3, r3, #256	; 0x100
 8001b30:	6033      	str	r3, [r6, #0]
 8001b32:	f7ff fd6d 	bl	8001610 <HAL_GetTick>
 8001b36:	4680      	mov	r8, r0
 8001b38:	6833      	ldr	r3, [r6, #0]
 8001b3a:	05da      	lsls	r2, r3, #23
 8001b3c:	d4dc      	bmi.n	8001af8 <HAL_RCC_OscConfig+0x1c8>
 8001b3e:	f7ff fd67 	bl	8001610 <HAL_GetTick>
 8001b42:	eba0 0008 	sub.w	r0, r0, r8
 8001b46:	2864      	cmp	r0, #100	; 0x64
 8001b48:	d9f6      	bls.n	8001b38 <HAL_RCC_OscConfig+0x208>
 8001b4a:	e733      	b.n	80019b4 <HAL_RCC_OscConfig+0x84>
 8001b4c:	b9ab      	cbnz	r3, 8001b7a <HAL_RCC_OscConfig+0x24a>
 8001b4e:	6a23      	ldr	r3, [r4, #32]
 8001b50:	f241 3888 	movw	r8, #5000	; 0x1388
 8001b54:	f023 0301 	bic.w	r3, r3, #1
 8001b58:	6223      	str	r3, [r4, #32]
 8001b5a:	6a23      	ldr	r3, [r4, #32]
 8001b5c:	f023 0304 	bic.w	r3, r3, #4
 8001b60:	6223      	str	r3, [r4, #32]
 8001b62:	f7ff fd55 	bl	8001610 <HAL_GetTick>
 8001b66:	4606      	mov	r6, r0
 8001b68:	6a23      	ldr	r3, [r4, #32]
 8001b6a:	0798      	lsls	r0, r3, #30
 8001b6c:	d5d3      	bpl.n	8001b16 <HAL_RCC_OscConfig+0x1e6>
 8001b6e:	f7ff fd4f 	bl	8001610 <HAL_GetTick>
 8001b72:	1b80      	subs	r0, r0, r6
 8001b74:	4540      	cmp	r0, r8
 8001b76:	d9f7      	bls.n	8001b68 <HAL_RCC_OscConfig+0x238>
 8001b78:	e71c      	b.n	80019b4 <HAL_RCC_OscConfig+0x84>
 8001b7a:	2b05      	cmp	r3, #5
 8001b7c:	6a23      	ldr	r3, [r4, #32]
 8001b7e:	d103      	bne.n	8001b88 <HAL_RCC_OscConfig+0x258>
 8001b80:	f043 0304 	orr.w	r3, r3, #4
 8001b84:	6223      	str	r3, [r4, #32]
 8001b86:	e7ba      	b.n	8001afe <HAL_RCC_OscConfig+0x1ce>
 8001b88:	f023 0301 	bic.w	r3, r3, #1
 8001b8c:	6223      	str	r3, [r4, #32]
 8001b8e:	6a23      	ldr	r3, [r4, #32]
 8001b90:	f023 0304 	bic.w	r3, r3, #4
 8001b94:	e7b6      	b.n	8001b04 <HAL_RCC_OscConfig+0x1d4>
 8001b96:	f7ff fd3b 	bl	8001610 <HAL_GetTick>
 8001b9a:	eba0 0008 	sub.w	r0, r0, r8
 8001b9e:	42b0      	cmp	r0, r6
 8001ba0:	d9b6      	bls.n	8001b10 <HAL_RCC_OscConfig+0x1e0>
 8001ba2:	e707      	b.n	80019b4 <HAL_RCC_OscConfig+0x84>
 8001ba4:	40021000 	.word	0x40021000
 8001ba8:	42420000 	.word	0x42420000
 8001bac:	42420480 	.word	0x42420480
 8001bb0:	20000004 	.word	0x20000004
 8001bb4:	40007000 	.word	0x40007000
 8001bb8:	4b2a      	ldr	r3, [pc, #168]	; (8001c64 <HAL_RCC_OscConfig+0x334>)
 8001bba:	685a      	ldr	r2, [r3, #4]
 8001bbc:	461c      	mov	r4, r3
 8001bbe:	f002 020c 	and.w	r2, r2, #12
 8001bc2:	2a08      	cmp	r2, #8
 8001bc4:	d03d      	beq.n	8001c42 <HAL_RCC_OscConfig+0x312>
 8001bc6:	2300      	movs	r3, #0
 8001bc8:	4e27      	ldr	r6, [pc, #156]	; (8001c68 <HAL_RCC_OscConfig+0x338>)
 8001bca:	2802      	cmp	r0, #2
 8001bcc:	6033      	str	r3, [r6, #0]
 8001bce:	d12b      	bne.n	8001c28 <HAL_RCC_OscConfig+0x2f8>
 8001bd0:	f7ff fd1e 	bl	8001610 <HAL_GetTick>
 8001bd4:	4607      	mov	r7, r0
 8001bd6:	6823      	ldr	r3, [r4, #0]
 8001bd8:	0199      	lsls	r1, r3, #6
 8001bda:	d41f      	bmi.n	8001c1c <HAL_RCC_OscConfig+0x2ec>
 8001bdc:	6a2b      	ldr	r3, [r5, #32]
 8001bde:	f5b3 3f80 	cmp.w	r3, #65536	; 0x10000
 8001be2:	d105      	bne.n	8001bf0 <HAL_RCC_OscConfig+0x2c0>
 8001be4:	6862      	ldr	r2, [r4, #4]
 8001be6:	68a9      	ldr	r1, [r5, #8]
 8001be8:	f422 3200 	bic.w	r2, r2, #131072	; 0x20000
 8001bec:	430a      	orrs	r2, r1
 8001bee:	6062      	str	r2, [r4, #4]
 8001bf0:	6a69      	ldr	r1, [r5, #36]	; 0x24
 8001bf2:	6862      	ldr	r2, [r4, #4]
 8001bf4:	430b      	orrs	r3, r1
 8001bf6:	f422 1274 	bic.w	r2, r2, #3997696	; 0x3d0000
 8001bfa:	4313      	orrs	r3, r2
 8001bfc:	6063      	str	r3, [r4, #4]
 8001bfe:	2301      	movs	r3, #1
 8001c00:	6033      	str	r3, [r6, #0]
 8001c02:	f7ff fd05 	bl	8001610 <HAL_GetTick>
 8001c06:	4605      	mov	r5, r0
 8001c08:	6823      	ldr	r3, [r4, #0]
 8001c0a:	019a      	lsls	r2, r3, #6
 8001c0c:	f53f aea8 	bmi.w	8001960 <HAL_RCC_OscConfig+0x30>
 8001c10:	f7ff fcfe 	bl	8001610 <HAL_GetTick>
 8001c14:	1b40      	subs	r0, r0, r5
 8001c16:	2802      	cmp	r0, #2
 8001c18:	d9f6      	bls.n	8001c08 <HAL_RCC_OscConfig+0x2d8>
 8001c1a:	e6cb      	b.n	80019b4 <HAL_RCC_OscConfig+0x84>
 8001c1c:	f7ff fcf8 	bl	8001610 <HAL_GetTick>
 8001c20:	1bc0      	subs	r0, r0, r7
 8001c22:	2802      	cmp	r0, #2
 8001c24:	d9d7      	bls.n	8001bd6 <HAL_RCC_OscConfig+0x2a6>
 8001c26:	e6c5      	b.n	80019b4 <HAL_RCC_OscConfig+0x84>
 8001c28:	f7ff fcf2 	bl	8001610 <HAL_GetTick>
 8001c2c:	4605      	mov	r5, r0
 8001c2e:	6823      	ldr	r3, [r4, #0]
 8001c30:	019b      	lsls	r3, r3, #6
 8001c32:	f57f ae95 	bpl.w	8001960 <HAL_RCC_OscConfig+0x30>
 8001c36:	f7ff fceb 	bl	8001610 <HAL_GetTick>
 8001c3a:	1b40      	subs	r0, r0, r5
 8001c3c:	2802      	cmp	r0, #2
 8001c3e:	d9f6      	bls.n	8001c2e <HAL_RCC_OscConfig+0x2fe>
 8001c40:	e6b8      	b.n	80019b4 <HAL_RCC_OscConfig+0x84>
 8001c42:	2801      	cmp	r0, #1
 8001c44:	f43f aeb7 	beq.w	80019b6 <HAL_RCC_OscConfig+0x86>
 8001c48:	6858      	ldr	r0, [r3, #4]
 8001c4a:	6a2b      	ldr	r3, [r5, #32]
 8001c4c:	f400 3280 	and.w	r2, r0, #65536	; 0x10000
 8001c50:	429a      	cmp	r2, r3
 8001c52:	f47f ae71 	bne.w	8001938 <HAL_RCC_OscConfig+0x8>
 8001c56:	6a6b      	ldr	r3, [r5, #36]	; 0x24
 8001c58:	f400 1070 	and.w	r0, r0, #3932160	; 0x3c0000
 8001c5c:	1ac0      	subs	r0, r0, r3
 8001c5e:	bf18      	it	ne
 8001c60:	2001      	movne	r0, #1
 8001c62:	e6a8      	b.n	80019b6 <HAL_RCC_OscConfig+0x86>
 8001c64:	40021000 	.word	0x40021000
 8001c68:	42420060 	.word	0x42420060

08001c6c <HAL_RCC_GetSysClockFreq>:
 8001c6c:	b530      	push	{r4, r5, lr}
 8001c6e:	4b18      	ldr	r3, [pc, #96]	; (8001cd0 <HAL_RCC_GetSysClockFreq+0x64>)
 8001c70:	b087      	sub	sp, #28
 8001c72:	ac02      	add	r4, sp, #8
 8001c74:	f103 0510 	add.w	r5, r3, #16
 8001c78:	4622      	mov	r2, r4
 8001c7a:	6818      	ldr	r0, [r3, #0]
 8001c7c:	6859      	ldr	r1, [r3, #4]
 8001c7e:	3308      	adds	r3, #8
 8001c80:	c203      	stmia	r2!, {r0, r1}
 8001c82:	42ab      	cmp	r3, r5
 8001c84:	4614      	mov	r4, r2
 8001c86:	d1f7      	bne.n	8001c78 <HAL_RCC_GetSysClockFreq+0xc>
 8001c88:	f240 2301 	movw	r3, #513	; 0x201
 8001c8c:	4911      	ldr	r1, [pc, #68]	; (8001cd4 <HAL_RCC_GetSysClockFreq+0x68>)
 8001c8e:	f8ad 3004 	strh.w	r3, [sp, #4]
 8001c92:	684b      	ldr	r3, [r1, #4]
 8001c94:	f003 020c 	and.w	r2, r3, #12
 8001c98:	2a08      	cmp	r2, #8
 8001c9a:	d117      	bne.n	8001ccc <HAL_RCC_GetSysClockFreq+0x60>
 8001c9c:	f3c3 4283 	ubfx	r2, r3, #18, #4
 8001ca0:	a806      	add	r0, sp, #24
 8001ca2:	4402      	add	r2, r0
 8001ca4:	03db      	lsls	r3, r3, #15
 8001ca6:	f812 2c10 	ldrb.w	r2, [r2, #-16]
 8001caa:	d50c      	bpl.n	8001cc6 <HAL_RCC_GetSysClockFreq+0x5a>
 8001cac:	684b      	ldr	r3, [r1, #4]
 8001cae:	480a      	ldr	r0, [pc, #40]	; (8001cd8 <HAL_RCC_GetSysClockFreq+0x6c>)
 8001cb0:	f3c3 4340 	ubfx	r3, r3, #17, #1
 8001cb4:	4350      	muls	r0, r2
 8001cb6:	aa06      	add	r2, sp, #24
 8001cb8:	4413      	add	r3, r2
 8001cba:	f813 3c14 	ldrb.w	r3, [r3, #-20]
 8001cbe:	fbb0 f0f3 	udiv	r0, r0, r3
 8001cc2:	b007      	add	sp, #28
 8001cc4:	bd30      	pop	{r4, r5, pc}
 8001cc6:	4805      	ldr	r0, [pc, #20]	; (8001cdc <HAL_RCC_GetSysClockFreq+0x70>)
 8001cc8:	4350      	muls	r0, r2
 8001cca:	e7fa      	b.n	8001cc2 <HAL_RCC_GetSysClockFreq+0x56>
 8001ccc:	4802      	ldr	r0, [pc, #8]	; (8001cd8 <HAL_RCC_GetSysClockFreq+0x6c>)
 8001cce:	e7f8      	b.n	8001cc2 <HAL_RCC_GetSysClockFreq+0x56>
 8001cd0:	080044d4 	.word	0x080044d4
 8001cd4:	40021000 	.word	0x40021000
 8001cd8:	007a1200 	.word	0x007a1200
 8001cdc:	003d0900 	.word	0x003d0900

08001ce0 <HAL_RCC_ClockConfig>:
 8001ce0:	e92d 41f0 	stmdb	sp!, {r4, r5, r6, r7, r8, lr}
 8001ce4:	460d      	mov	r5, r1
 8001ce6:	4604      	mov	r4, r0
 8001ce8:	b910      	cbnz	r0, 8001cf0 <HAL_RCC_ClockConfig+0x10>
 8001cea:	2001      	movs	r0, #1
 8001cec:	e8bd 81f0 	ldmia.w	sp!, {r4, r5, r6, r7, r8, pc}
 8001cf0:	4a44      	ldr	r2, [pc, #272]	; (8001e04 <HAL_RCC_ClockConfig+0x124>)
 8001cf2:	6813      	ldr	r3, [r2, #0]
 8001cf4:	f003 0307 	and.w	r3, r3, #7
 8001cf8:	428b      	cmp	r3, r1
 8001cfa:	d328      	bcc.n	8001d4e <HAL_RCC_ClockConfig+0x6e>
 8001cfc:	6821      	ldr	r1, [r4, #0]
 8001cfe:	078e      	lsls	r6, r1, #30
 8001d00:	d430      	bmi.n	8001d64 <HAL_RCC_ClockConfig+0x84>
 8001d02:	07ca      	lsls	r2, r1, #31
 8001d04:	d443      	bmi.n	8001d8e <HAL_RCC_ClockConfig+0xae>
 8001d06:	4a3f      	ldr	r2, [pc, #252]	; (8001e04 <HAL_RCC_ClockConfig+0x124>)
 8001d08:	6813      	ldr	r3, [r2, #0]
 8001d0a:	f003 0307 	and.w	r3, r3, #7
 8001d0e:	42ab      	cmp	r3, r5
 8001d10:	d865      	bhi.n	8001dde <HAL_RCC_ClockConfig+0xfe>
 8001d12:	6822      	ldr	r2, [r4, #0]
 8001d14:	4d3c      	ldr	r5, [pc, #240]	; (8001e08 <HAL_RCC_ClockConfig+0x128>)
 8001d16:	f012 0f04 	tst.w	r2, #4
 8001d1a:	d16c      	bne.n	8001df6 <HAL_RCC_ClockConfig+0x116>
 8001d1c:	0713      	lsls	r3, r2, #28
 8001d1e:	d506      	bpl.n	8001d2e <HAL_RCC_ClockConfig+0x4e>
 8001d20:	686b      	ldr	r3, [r5, #4]
 8001d22:	6922      	ldr	r2, [r4, #16]
 8001d24:	f423 5360 	bic.w	r3, r3, #14336	; 0x3800
 8001d28:	ea43 03c2 	orr.w	r3, r3, r2, lsl #3
 8001d2c:	606b      	str	r3, [r5, #4]
 8001d2e:	f7ff ff9d 	bl	8001c6c <HAL_RCC_GetSysClockFreq>
 8001d32:	686b      	ldr	r3, [r5, #4]
 8001d34:	4a35      	ldr	r2, [pc, #212]	; (8001e0c <HAL_RCC_ClockConfig+0x12c>)
 8001d36:	f3c3 1303 	ubfx	r3, r3, #4, #4
 8001d3a:	5cd3      	ldrb	r3, [r2, r3]
 8001d3c:	40d8      	lsrs	r0, r3
 8001d3e:	4b34      	ldr	r3, [pc, #208]	; (8001e10 <HAL_RCC_ClockConfig+0x130>)
 8001d40:	6018      	str	r0, [r3, #0]
 8001d42:	4b34      	ldr	r3, [pc, #208]	; (8001e14 <HAL_RCC_ClockConfig+0x134>)
 8001d44:	6818      	ldr	r0, [r3, #0]
 8001d46:	f7ff fba5 	bl	8001494 <HAL_InitTick>
 8001d4a:	2000      	movs	r0, #0
 8001d4c:	e7ce      	b.n	8001cec <HAL_RCC_ClockConfig+0xc>
 8001d4e:	6813      	ldr	r3, [r2, #0]
 8001d50:	f023 0307 	bic.w	r3, r3, #7
 8001d54:	430b      	orrs	r3, r1
 8001d56:	6013      	str	r3, [r2, #0]
 8001d58:	6813      	ldr	r3, [r2, #0]
 8001d5a:	f003 0307 	and.w	r3, r3, #7
 8001d5e:	428b      	cmp	r3, r1
 8001d60:	d1c3      	bne.n	8001cea <HAL_RCC_ClockConfig+0xa>
 8001d62:	e7cb      	b.n	8001cfc <HAL_RCC_ClockConfig+0x1c>
 8001d64:	4b28      	ldr	r3, [pc, #160]	; (8001e08 <HAL_RCC_ClockConfig+0x128>)
 8001d66:	f011 0f04 	tst.w	r1, #4
 8001d6a:	bf1e      	ittt	ne
 8001d6c:	685a      	ldrne	r2, [r3, #4]
 8001d6e:	f442 62e0 	orrne.w	r2, r2, #1792	; 0x700
 8001d72:	605a      	strne	r2, [r3, #4]
 8001d74:	0708      	lsls	r0, r1, #28
 8001d76:	bf42      	ittt	mi
 8001d78:	685a      	ldrmi	r2, [r3, #4]
 8001d7a:	f442 5260 	orrmi.w	r2, r2, #14336	; 0x3800
 8001d7e:	605a      	strmi	r2, [r3, #4]
 8001d80:	685a      	ldr	r2, [r3, #4]
 8001d82:	68a0      	ldr	r0, [r4, #8]
 8001d84:	f022 02f0 	bic.w	r2, r2, #240	; 0xf0
 8001d88:	4302      	orrs	r2, r0
 8001d8a:	605a      	str	r2, [r3, #4]
 8001d8c:	e7b9      	b.n	8001d02 <HAL_RCC_ClockConfig+0x22>
 8001d8e:	6862      	ldr	r2, [r4, #4]
 8001d90:	4e1d      	ldr	r6, [pc, #116]	; (8001e08 <HAL_RCC_ClockConfig+0x128>)
 8001d92:	2a01      	cmp	r2, #1
 8001d94:	6833      	ldr	r3, [r6, #0]
 8001d96:	d11a      	bne.n	8001dce <HAL_RCC_ClockConfig+0xee>
 8001d98:	f413 3f00 	tst.w	r3, #131072	; 0x20000
 8001d9c:	d0a5      	beq.n	8001cea <HAL_RCC_ClockConfig+0xa>
 8001d9e:	6873      	ldr	r3, [r6, #4]
 8001da0:	f241 3888 	movw	r8, #5000	; 0x1388
 8001da4:	f023 0303 	bic.w	r3, r3, #3
 8001da8:	4313      	orrs	r3, r2
 8001daa:	6073      	str	r3, [r6, #4]
 8001dac:	f7ff fc30 	bl	8001610 <HAL_GetTick>
 8001db0:	4607      	mov	r7, r0
 8001db2:	6873      	ldr	r3, [r6, #4]
 8001db4:	6862      	ldr	r2, [r4, #4]
 8001db6:	f003 030c 	and.w	r3, r3, #12
 8001dba:	ebb3 0f82 	cmp.w	r3, r2, lsl #2
 8001dbe:	d0a2      	beq.n	8001d06 <HAL_RCC_ClockConfig+0x26>
 8001dc0:	f7ff fc26 	bl	8001610 <HAL_GetTick>
 8001dc4:	1bc0      	subs	r0, r0, r7
 8001dc6:	4540      	cmp	r0, r8
 8001dc8:	d9f3      	bls.n	8001db2 <HAL_RCC_ClockConfig+0xd2>
 8001dca:	2003      	movs	r0, #3
 8001dcc:	e78e      	b.n	8001cec <HAL_RCC_ClockConfig+0xc>
 8001dce:	2a02      	cmp	r2, #2
 8001dd0:	d102      	bne.n	8001dd8 <HAL_RCC_ClockConfig+0xf8>
 8001dd2:	f013 7f00 	tst.w	r3, #33554432	; 0x2000000
 8001dd6:	e7e1      	b.n	8001d9c <HAL_RCC_ClockConfig+0xbc>
 8001dd8:	f013 0f02 	tst.w	r3, #2
 8001ddc:	e7de      	b.n	8001d9c <HAL_RCC_ClockConfig+0xbc>
 8001dde:	6813      	ldr	r3, [r2, #0]
 8001de0:	f023 0307 	bic.w	r3, r3, #7
 8001de4:	432b      	orrs	r3, r5
 8001de6:	6013      	str	r3, [r2, #0]
 8001de8:	6813      	ldr	r3, [r2, #0]
 8001dea:	f003 0307 	and.w	r3, r3, #7
 8001dee:	42ab      	cmp	r3, r5
 8001df0:	f47f af7b 	bne.w	8001cea <HAL_RCC_ClockConfig+0xa>
 8001df4:	e78d      	b.n	8001d12 <HAL_RCC_ClockConfig+0x32>
 8001df6:	686b      	ldr	r3, [r5, #4]
 8001df8:	68e1      	ldr	r1, [r4, #12]
 8001dfa:	f423 63e0 	bic.w	r3, r3, #1792	; 0x700
 8001dfe:	430b      	orrs	r3, r1
 8001e00:	606b      	str	r3, [r5, #4]
 8001e02:	e78b      	b.n	8001d1c <HAL_RCC_ClockConfig+0x3c>
 8001e04:	40022000 	.word	0x40022000
 8001e08:	40021000 	.word	0x40021000
 8001e0c:	08004883 	.word	0x08004883
 8001e10:	20000004 	.word	0x20000004
 8001e14:	2000000c 	.word	0x2000000c

08001e18 <HAL_RCC_GetPCLK1Freq>:
 8001e18:	4b04      	ldr	r3, [pc, #16]	; (8001e2c <HAL_RCC_GetPCLK1Freq+0x14>)
 8001e1a:	4a05      	ldr	r2, [pc, #20]	; (8001e30 <HAL_RCC_GetPCLK1Freq+0x18>)
 8001e1c:	685b      	ldr	r3, [r3, #4]
 8001e1e:	f3c3 2302 	ubfx	r3, r3, #8, #3
 8001e22:	5cd3      	ldrb	r3, [r2, r3]
 8001e24:	4a03      	ldr	r2, [pc, #12]	; (8001e34 <HAL_RCC_GetPCLK1Freq+0x1c>)
 8001e26:	6810      	ldr	r0, [r2, #0]
 8001e28:	40d8      	lsrs	r0, r3
 8001e2a:	4770      	bx	lr
 8001e2c:	40021000 	.word	0x40021000
 8001e30:	08004893 	.word	0x08004893
 8001e34:	20000004 	.word	0x20000004

08001e38 <HAL_RCC_GetPCLK2Freq>:
 8001e38:	4b04      	ldr	r3, [pc, #16]	; (8001e4c <HAL_RCC_GetPCLK2Freq+0x14>)
 8001e3a:	4a05      	ldr	r2, [pc, #20]	; (8001e50 <HAL_RCC_GetPCLK2Freq+0x18>)
 8001e3c:	685b      	ldr	r3, [r3, #4]
 8001e3e:	f3c3 23c2 	ubfx	r3, r3, #11, #3
 8001e42:	5cd3      	ldrb	r3, [r2, r3]
 8001e44:	4a03      	ldr	r2, [pc, #12]	; (8001e54 <HAL_RCC_GetPCLK2Freq+0x1c>)
 8001e46:	6810      	ldr	r0, [r2, #0]
 8001e48:	40d8      	lsrs	r0, r3
 8001e4a:	4770      	bx	lr
 8001e4c:	40021000 	.word	0x40021000
 8001e50:	08004893 	.word	0x08004893
 8001e54:	20000004 	.word	0x20000004

08001e58 <HAL_RCC_GetClockConfig>:
 8001e58:	230f      	movs	r3, #15
 8001e5a:	6003      	str	r3, [r0, #0]
 8001e5c:	4b0b      	ldr	r3, [pc, #44]	; (8001e8c <HAL_RCC_GetClockConfig+0x34>)
 8001e5e:	685a      	ldr	r2, [r3, #4]
 8001e60:	f002 0203 	and.w	r2, r2, #3
 8001e64:	6042      	str	r2, [r0, #4]
 8001e66:	685a      	ldr	r2, [r3, #4]
 8001e68:	f002 02f0 	and.w	r2, r2, #240	; 0xf0
 8001e6c:	6082      	str	r2, [r0, #8]
 8001e6e:	685a      	ldr	r2, [r3, #4]
 8001e70:	f402 62e0 	and.w	r2, r2, #1792	; 0x700
 8001e74:	60c2      	str	r2, [r0, #12]
 8001e76:	685b      	ldr	r3, [r3, #4]
 8001e78:	08db      	lsrs	r3, r3, #3
 8001e7a:	f403 63e0 	and.w	r3, r3, #1792	; 0x700
 8001e7e:	6103      	str	r3, [r0, #16]
 8001e80:	4b03      	ldr	r3, [pc, #12]	; (8001e90 <HAL_RCC_GetClockConfig+0x38>)
 8001e82:	681b      	ldr	r3, [r3, #0]
 8001e84:	f003 0307 	and.w	r3, r3, #7
 8001e88:	600b      	str	r3, [r1, #0]
 8001e8a:	4770      	bx	lr
 8001e8c:	40021000 	.word	0x40021000
 8001e90:	40022000 	.word	0x40022000

08001e94 <HAL_TIM_Base_MspInit>:
 8001e94:	4770      	bx	lr
	...

08001e98 <HAL_TIM_Base_Start_IT>:
 8001e98:	f890 303d 	ldrb.w	r3, [r0, #61]	; 0x3d
 8001e9c:	2b01      	cmp	r3, #1
 8001e9e:	d120      	bne.n	8001ee2 <HAL_TIM_Base_Start_IT+0x4a>
 8001ea0:	2302      	movs	r3, #2
 8001ea2:	f880 303d 	strb.w	r3, [r0, #61]	; 0x3d
 8001ea6:	6803      	ldr	r3, [r0, #0]
 8001ea8:	68da      	ldr	r2, [r3, #12]
 8001eaa:	f042 0201 	orr.w	r2, r2, #1
 8001eae:	60da      	str	r2, [r3, #12]
 8001eb0:	4a0d      	ldr	r2, [pc, #52]	; (8001ee8 <HAL_TIM_Base_Start_IT+0x50>)
 8001eb2:	4293      	cmp	r3, r2
 8001eb4:	d00a      	beq.n	8001ecc <HAL_TIM_Base_Start_IT+0x34>
 8001eb6:	f1b3 4f80 	cmp.w	r3, #1073741824	; 0x40000000
 8001eba:	d007      	beq.n	8001ecc <HAL_TIM_Base_Start_IT+0x34>
 8001ebc:	f5a2 3294 	sub.w	r2, r2, #75776	; 0x12800
 8001ec0:	4293      	cmp	r3, r2
 8001ec2:	d003      	beq.n	8001ecc <HAL_TIM_Base_Start_IT+0x34>
 8001ec4:	f502 6280 	add.w	r2, r2, #1024	; 0x400
 8001ec8:	4293      	cmp	r3, r2
 8001eca:	d104      	bne.n	8001ed6 <HAL_TIM_Base_Start_IT+0x3e>
 8001ecc:	689a      	ldr	r2, [r3, #8]
 8001ece:	f002 0207 	and.w	r2, r2, #7
 8001ed2:	2a06      	cmp	r2, #6
 8001ed4:	d003      	beq.n	8001ede <HAL_TIM_Base_Start_IT+0x46>
 8001ed6:	681a      	ldr	r2, [r3, #0]
 8001ed8:	f042 0201 	orr.w	r2, r2, #1
 8001edc:	601a      	str	r2, [r3, #0]
 8001ede:	2000      	movs	r0, #0
 8001ee0:	4770      	bx	lr
 8001ee2:	2001      	movs	r0, #1
 8001ee4:	4770      	bx	lr
 8001ee6:	bf00      	nop
 8001ee8:	40012c00 	.word	0x40012c00

08001eec <HAL_TIM_OC_DelayElapsedCallback>:
 8001eec:	4770      	bx	lr

08001eee <HAL_TIM_IC_CaptureCallback>:
 8001eee:	4770      	bx	lr

08001ef0 <HAL_TIM_PWM_PulseFinishedCallback>:
 8001ef0:	4770      	bx	lr

08001ef2 <HAL_TIM_TriggerCallback>:
 8001ef2:	4770      	bx	lr

08001ef4 <HAL_TIM_IRQHandler>:
 8001ef4:	6803      	ldr	r3, [r0, #0]
 8001ef6:	b510      	push	{r4, lr}
 8001ef8:	691a      	ldr	r2, [r3, #16]
 8001efa:	4604      	mov	r4, r0
 8001efc:	0791      	lsls	r1, r2, #30
 8001efe:	d50e      	bpl.n	8001f1e <HAL_TIM_IRQHandler+0x2a>
 8001f00:	68da      	ldr	r2, [r3, #12]
 8001f02:	0792      	lsls	r2, r2, #30
 8001f04:	d50b      	bpl.n	8001f1e <HAL_TIM_IRQHandler+0x2a>
 8001f06:	f06f 0202 	mvn.w	r2, #2
 8001f0a:	611a      	str	r2, [r3, #16]
 8001f0c:	2201      	movs	r2, #1
 8001f0e:	699b      	ldr	r3, [r3, #24]
 8001f10:	7702      	strb	r2, [r0, #28]
 8001f12:	079b      	lsls	r3, r3, #30
 8001f14:	d077      	beq.n	8002006 <HAL_TIM_IRQHandler+0x112>
 8001f16:	f7ff ffea 	bl	8001eee <HAL_TIM_IC_CaptureCallback>
 8001f1a:	2300      	movs	r3, #0
 8001f1c:	7723      	strb	r3, [r4, #28]
 8001f1e:	6823      	ldr	r3, [r4, #0]
 8001f20:	691a      	ldr	r2, [r3, #16]
 8001f22:	0750      	lsls	r0, r2, #29
 8001f24:	d510      	bpl.n	8001f48 <HAL_TIM_IRQHandler+0x54>
 8001f26:	68da      	ldr	r2, [r3, #12]
 8001f28:	0751      	lsls	r1, r2, #29
 8001f2a:	d50d      	bpl.n	8001f48 <HAL_TIM_IRQHandler+0x54>
 8001f2c:	f06f 0204 	mvn.w	r2, #4
 8001f30:	611a      	str	r2, [r3, #16]
 8001f32:	2202      	movs	r2, #2
 8001f34:	699b      	ldr	r3, [r3, #24]
 8001f36:	7722      	strb	r2, [r4, #28]
 8001f38:	f413 7f40 	tst.w	r3, #768	; 0x300
 8001f3c:	4620      	mov	r0, r4
 8001f3e:	d068      	beq.n	8002012 <HAL_TIM_IRQHandler+0x11e>
 8001f40:	f7ff ffd5 	bl	8001eee <HAL_TIM_IC_CaptureCallback>
 8001f44:	2300      	movs	r3, #0
 8001f46:	7723      	strb	r3, [r4, #28]
 8001f48:	6823      	ldr	r3, [r4, #0]
 8001f4a:	691a      	ldr	r2, [r3, #16]
 8001f4c:	0712      	lsls	r2, r2, #28
 8001f4e:	d50f      	bpl.n	8001f70 <HAL_TIM_IRQHandler+0x7c>
 8001f50:	68da      	ldr	r2, [r3, #12]
 8001f52:	0710      	lsls	r0, r2, #28
 8001f54:	d50c      	bpl.n	8001f70 <HAL_TIM_IRQHandler+0x7c>
 8001f56:	f06f 0208 	mvn.w	r2, #8
 8001f5a:	611a      	str	r2, [r3, #16]
 8001f5c:	2204      	movs	r2, #4
 8001f5e:	69db      	ldr	r3, [r3, #28]
 8001f60:	7722      	strb	r2, [r4, #28]
 8001f62:	0799      	lsls	r1, r3, #30
 8001f64:	4620      	mov	r0, r4
 8001f66:	d05a      	beq.n	800201e <HAL_TIM_IRQHandler+0x12a>
 8001f68:	f7ff ffc1 	bl	8001eee <HAL_TIM_IC_CaptureCallback>
 8001f6c:	2300      	movs	r3, #0
 8001f6e:	7723      	strb	r3, [r4, #28]
 8001f70:	6823      	ldr	r3, [r4, #0]
 8001f72:	691a      	ldr	r2, [r3, #16]
 8001f74:	06d2      	lsls	r2, r2, #27
 8001f76:	d510      	bpl.n	8001f9a <HAL_TIM_IRQHandler+0xa6>
 8001f78:	68da      	ldr	r2, [r3, #12]
 8001f7a:	06d0      	lsls	r0, r2, #27
 8001f7c:	d50d      	bpl.n	8001f9a <HAL_TIM_IRQHandler+0xa6>
 8001f7e:	f06f 0210 	mvn.w	r2, #16
 8001f82:	611a      	str	r2, [r3, #16]
 8001f84:	2208      	movs	r2, #8
 8001f86:	69db      	ldr	r3, [r3, #28]
 8001f88:	7722      	strb	r2, [r4, #28]
 8001f8a:	f413 7f40 	tst.w	r3, #768	; 0x300
 8001f8e:	4620      	mov	r0, r4
 8001f90:	d04b      	beq.n	800202a <HAL_TIM_IRQHandler+0x136>
 8001f92:	f7ff ffac 	bl	8001eee <HAL_TIM_IC_CaptureCallback>
 8001f96:	2300      	movs	r3, #0
 8001f98:	7723      	strb	r3, [r4, #28]
 8001f9a:	6823      	ldr	r3, [r4, #0]
 8001f9c:	691a      	ldr	r2, [r3, #16]
 8001f9e:	07d1      	lsls	r1, r2, #31
 8001fa0:	d508      	bpl.n	8001fb4 <HAL_TIM_IRQHandler+0xc0>
 8001fa2:	68da      	ldr	r2, [r3, #12]
 8001fa4:	07d2      	lsls	r2, r2, #31
 8001fa6:	d505      	bpl.n	8001fb4 <HAL_TIM_IRQHandler+0xc0>
 8001fa8:	f06f 0201 	mvn.w	r2, #1
 8001fac:	4620      	mov	r0, r4
 8001fae:	611a      	str	r2, [r3, #16]
 8001fb0:	f7ff f9cc 	bl	800134c <HAL_TIM_PeriodElapsedCallback>
 8001fb4:	6823      	ldr	r3, [r4, #0]
 8001fb6:	691a      	ldr	r2, [r3, #16]
 8001fb8:	0610      	lsls	r0, r2, #24
 8001fba:	d508      	bpl.n	8001fce <HAL_TIM_IRQHandler+0xda>
 8001fbc:	68da      	ldr	r2, [r3, #12]
 8001fbe:	0611      	lsls	r1, r2, #24
 8001fc0:	d505      	bpl.n	8001fce <HAL_TIM_IRQHandler+0xda>
 8001fc2:	f06f 0280 	mvn.w	r2, #128	; 0x80
 8001fc6:	4620      	mov	r0, r4
 8001fc8:	611a      	str	r2, [r3, #16]
 8001fca:	f000 f89a 	bl	8002102 <HAL_TIMEx_BreakCallback>
 8001fce:	6823      	ldr	r3, [r4, #0]
 8001fd0:	691a      	ldr	r2, [r3, #16]
 8001fd2:	0652      	lsls	r2, r2, #25
 8001fd4:	d508      	bpl.n	8001fe8 <HAL_TIM_IRQHandler+0xf4>
 8001fd6:	68da      	ldr	r2, [r3, #12]
 8001fd8:	0650      	lsls	r0, r2, #25
 8001fda:	d505      	bpl.n	8001fe8 <HAL_TIM_IRQHandler+0xf4>
 8001fdc:	f06f 0240 	mvn.w	r2, #64	; 0x40
 8001fe0:	4620      	mov	r0, r4
 8001fe2:	611a      	str	r2, [r3, #16]
 8001fe4:	f7ff ff85 	bl	8001ef2 <HAL_TIM_TriggerCallback>
 8001fe8:	6823      	ldr	r3, [r4, #0]
 8001fea:	691a      	ldr	r2, [r3, #16]
 8001fec:	0691      	lsls	r1, r2, #26
 8001fee:	d522      	bpl.n	8002036 <HAL_TIM_IRQHandler+0x142>
 8001ff0:	68da      	ldr	r2, [r3, #12]
 8001ff2:	0692      	lsls	r2, r2, #26
 8001ff4:	d51f      	bpl.n	8002036 <HAL_TIM_IRQHandler+0x142>
 8001ff6:	f06f 0220 	mvn.w	r2, #32
 8001ffa:	4620      	mov	r0, r4
 8001ffc:	e8bd 4010 	ldmia.w	sp!, {r4, lr}
 8002000:	611a      	str	r2, [r3, #16]
 8002002:	f000 b87d 	b.w	8002100 <HAL_TIMEx_CommutCallback>
 8002006:	f7ff ff71 	bl	8001eec <HAL_TIM_OC_DelayElapsedCallback>
 800200a:	4620      	mov	r0, r4
 800200c:	f7ff ff70 	bl	8001ef0 <HAL_TIM_PWM_PulseFinishedCallback>
 8002010:	e783      	b.n	8001f1a <HAL_TIM_IRQHandler+0x26>
 8002012:	f7ff ff6b 	bl	8001eec <HAL_TIM_OC_DelayElapsedCallback>
 8002016:	4620      	mov	r0, r4
 8002018:	f7ff ff6a 	bl	8001ef0 <HAL_TIM_PWM_PulseFinishedCallback>
 800201c:	e792      	b.n	8001f44 <HAL_TIM_IRQHandler+0x50>
 800201e:	f7ff ff65 	bl	8001eec <HAL_TIM_OC_DelayElapsedCallback>
 8002022:	4620      	mov	r0, r4
 8002024:	f7ff ff64 	bl	8001ef0 <HAL_TIM_PWM_PulseFinishedCallback>
 8002028:	e7a0      	b.n	8001f6c <HAL_TIM_IRQHandler+0x78>
 800202a:	f7ff ff5f 	bl	8001eec <HAL_TIM_OC_DelayElapsedCallback>
 800202e:	4620      	mov	r0, r4
 8002030:	f7ff ff5e 	bl	8001ef0 <HAL_TIM_PWM_PulseFinishedCallback>
 8002034:	e7af      	b.n	8001f96 <HAL_TIM_IRQHandler+0xa2>
 8002036:	bd10      	pop	{r4, pc}

08002038 <TIM_Base_SetConfig>:
 8002038:	4a1a      	ldr	r2, [pc, #104]	; (80020a4 <TIM_Base_SetConfig+0x6c>)
 800203a:	6803      	ldr	r3, [r0, #0]
 800203c:	4290      	cmp	r0, r2
 800203e:	d00a      	beq.n	8002056 <TIM_Base_SetConfig+0x1e>
 8002040:	f1b0 4f80 	cmp.w	r0, #1073741824	; 0x40000000
 8002044:	d007      	beq.n	8002056 <TIM_Base_SetConfig+0x1e>
 8002046:	f5a2 3294 	sub.w	r2, r2, #75776	; 0x12800
 800204a:	4290      	cmp	r0, r2
 800204c:	d003      	beq.n	8002056 <TIM_Base_SetConfig+0x1e>
 800204e:	f502 6280 	add.w	r2, r2, #1024	; 0x400
 8002052:	4290      	cmp	r0, r2
 8002054:	d115      	bne.n	8002082 <TIM_Base_SetConfig+0x4a>
 8002056:	684a      	ldr	r2, [r1, #4]
 8002058:	f023 0370 	bic.w	r3, r3, #112	; 0x70
 800205c:	4313      	orrs	r3, r2
 800205e:	4a11      	ldr	r2, [pc, #68]	; (80020a4 <TIM_Base_SetConfig+0x6c>)
 8002060:	4290      	cmp	r0, r2
 8002062:	d00a      	beq.n	800207a <TIM_Base_SetConfig+0x42>
 8002064:	f1b0 4f80 	cmp.w	r0, #1073741824	; 0x40000000
 8002068:	d007      	beq.n	800207a <TIM_Base_SetConfig+0x42>
 800206a:	f5a2 3294 	sub.w	r2, r2, #75776	; 0x12800
 800206e:	4290      	cmp	r0, r2
 8002070:	d003      	beq.n	800207a <TIM_Base_SetConfig+0x42>
 8002072:	f502 6280 	add.w	r2, r2, #1024	; 0x400
 8002076:	4290      	cmp	r0, r2
 8002078:	d103      	bne.n	8002082 <TIM_Base_SetConfig+0x4a>
 800207a:	68ca      	ldr	r2, [r1, #12]
 800207c:	f423 7340 	bic.w	r3, r3, #768	; 0x300
 8002080:	4313      	orrs	r3, r2
 8002082:	694a      	ldr	r2, [r1, #20]
 8002084:	f023 0380 	bic.w	r3, r3, #128	; 0x80
 8002088:	4313      	orrs	r3, r2
 800208a:	6003      	str	r3, [r0, #0]
 800208c:	688b      	ldr	r3, [r1, #8]
 800208e:	62c3      	str	r3, [r0, #44]	; 0x2c
 8002090:	680b      	ldr	r3, [r1, #0]
 8002092:	6283      	str	r3, [r0, #40]	; 0x28
 8002094:	4b03      	ldr	r3, [pc, #12]	; (80020a4 <TIM_Base_SetConfig+0x6c>)
 8002096:	4298      	cmp	r0, r3
 8002098:	bf04      	itt	eq
 800209a:	690b      	ldreq	r3, [r1, #16]
 800209c:	6303      	streq	r3, [r0, #48]	; 0x30
 800209e:	2301      	movs	r3, #1
 80020a0:	6143      	str	r3, [r0, #20]
 80020a2:	4770      	bx	lr
 80020a4:	40012c00 	.word	0x40012c00

080020a8 <HAL_TIM_Base_Init>:
 80020a8:	b510      	push	{r4, lr}
 80020aa:	4604      	mov	r4, r0
 80020ac:	b330      	cbz	r0, 80020fc <HAL_TIM_Base_Init+0x54>
 80020ae:	f890 303d 	ldrb.w	r3, [r0, #61]	; 0x3d
 80020b2:	f003 02ff 	and.w	r2, r3, #255	; 0xff
 80020b6:	b91b      	cbnz	r3, 80020c0 <HAL_TIM_Base_Init+0x18>
 80020b8:	f880 203c 	strb.w	r2, [r0, #60]	; 0x3c
 80020bc:	f7ff feea 	bl	8001e94 <HAL_TIM_Base_MspInit>
 80020c0:	2302      	movs	r3, #2
 80020c2:	6820      	ldr	r0, [r4, #0]
 80020c4:	f884 303d 	strb.w	r3, [r4, #61]	; 0x3d
 80020c8:	1d21      	adds	r1, r4, #4
 80020ca:	f7ff ffb5 	bl	8002038 <TIM_Base_SetConfig>
 80020ce:	2301      	movs	r3, #1
 80020d0:	2000      	movs	r0, #0
 80020d2:	f884 3046 	strb.w	r3, [r4, #70]	; 0x46
 80020d6:	f884 303e 	strb.w	r3, [r4, #62]	; 0x3e
 80020da:	f884 303f 	strb.w	r3, [r4, #63]	; 0x3f
 80020de:	f884 3040 	strb.w	r3, [r4, #64]	; 0x40
 80020e2:	f884 3041 	strb.w	r3, [r4, #65]	; 0x41
 80020e6:	f884 3042 	strb.w	r3, [r4, #66]	; 0x42
 80020ea:	f884 3043 	strb.w	r3, [r4, #67]	; 0x43
 80020ee:	f884 3044 	strb.w	r3, [r4, #68]	; 0x44
 80020f2:	f884 3045 	strb.w	r3, [r4, #69]	; 0x45
 80020f6:	f884 303d 	strb.w	r3, [r4, #61]	; 0x3d
 80020fa:	bd10      	pop	{r4, pc}
 80020fc:	2001      	movs	r0, #1
 80020fe:	e7fc      	b.n	80020fa <HAL_TIM_Base_Init+0x52>

08002100 <HAL_TIMEx_CommutCallback>:
 8002100:	4770      	bx	lr

08002102 <HAL_TIMEx_BreakCallback>:
 8002102:	4770      	bx	lr

08002104 <UART_EndRxTransfer>:
 8002104:	6803      	ldr	r3, [r0, #0]
 8002106:	68da      	ldr	r2, [r3, #12]
 8002108:	f422 7290 	bic.w	r2, r2, #288	; 0x120
 800210c:	60da      	str	r2, [r3, #12]
 800210e:	695a      	ldr	r2, [r3, #20]
 8002110:	f022 0201 	bic.w	r2, r2, #1
 8002114:	615a      	str	r2, [r3, #20]
 8002116:	2320      	movs	r3, #32
 8002118:	f880 303a 	strb.w	r3, [r0, #58]	; 0x3a
 800211c:	4770      	bx	lr
	...

08002120 <UART_SetConfig>:
 8002120:	b510      	push	{r4, lr}
 8002122:	4604      	mov	r4, r0
 8002124:	6803      	ldr	r3, [r0, #0]
 8002126:	68c1      	ldr	r1, [r0, #12]
 8002128:	691a      	ldr	r2, [r3, #16]
 800212a:	f422 5240 	bic.w	r2, r2, #12288	; 0x3000
 800212e:	430a      	orrs	r2, r1
 8002130:	611a      	str	r2, [r3, #16]
 8002132:	6882      	ldr	r2, [r0, #8]
 8002134:	6900      	ldr	r0, [r0, #16]
 8002136:	68d9      	ldr	r1, [r3, #12]
 8002138:	4302      	orrs	r2, r0
 800213a:	6960      	ldr	r0, [r4, #20]
 800213c:	f421 51b0 	bic.w	r1, r1, #5632	; 0x1600
 8002140:	f021 010c 	bic.w	r1, r1, #12
 8002144:	4302      	orrs	r2, r0
 8002146:	430a      	orrs	r2, r1
 8002148:	60da      	str	r2, [r3, #12]
 800214a:	695a      	ldr	r2, [r3, #20]
 800214c:	69a1      	ldr	r1, [r4, #24]
 800214e:	f422 7240 	bic.w	r2, r2, #768	; 0x300
 8002152:	430a      	orrs	r2, r1
 8002154:	615a      	str	r2, [r3, #20]
 8002156:	4a0e      	ldr	r2, [pc, #56]	; (8002190 <UART_SetConfig+0x70>)
 8002158:	4293      	cmp	r3, r2
 800215a:	d115      	bne.n	8002188 <UART_SetConfig+0x68>
 800215c:	f7ff fe6c 	bl	8001e38 <HAL_RCC_GetPCLK2Freq>
 8002160:	2319      	movs	r3, #25
 8002162:	4358      	muls	r0, r3
 8002164:	6863      	ldr	r3, [r4, #4]
 8002166:	2264      	movs	r2, #100	; 0x64
 8002168:	009b      	lsls	r3, r3, #2
 800216a:	fbb0 f0f3 	udiv	r0, r0, r3
 800216e:	fbb0 f1f2 	udiv	r1, r0, r2
 8002172:	fb02 0311 	mls	r3, r2, r1, r0
 8002176:	011b      	lsls	r3, r3, #4
 8002178:	3332      	adds	r3, #50	; 0x32
 800217a:	fbb3 f3f2 	udiv	r3, r3, r2
 800217e:	6824      	ldr	r4, [r4, #0]
 8002180:	eb03 1301 	add.w	r3, r3, r1, lsl #4
 8002184:	60a3      	str	r3, [r4, #8]
 8002186:	bd10      	pop	{r4, pc}
 8002188:	f7ff fe46 	bl	8001e18 <HAL_RCC_GetPCLK1Freq>
 800218c:	e7e8      	b.n	8002160 <UART_SetConfig+0x40>
 800218e:	bf00      	nop
 8002190:	40013800 	.word	0x40013800

08002194 <UART_WaitOnFlagUntilTimeout.constprop.3>:
 8002194:	b5f8      	push	{r3, r4, r5, r6, r7, lr}
 8002196:	4604      	mov	r4, r0
 8002198:	460e      	mov	r6, r1
 800219a:	4617      	mov	r7, r2
 800219c:	461d      	mov	r5, r3
 800219e:	6821      	ldr	r1, [r4, #0]
 80021a0:	680b      	ldr	r3, [r1, #0]
 80021a2:	ea36 0303 	bics.w	r3, r6, r3
 80021a6:	d101      	bne.n	80021ac <UART_WaitOnFlagUntilTimeout.constprop.3+0x18>
 80021a8:	2000      	movs	r0, #0
 80021aa:	e014      	b.n	80021d6 <UART_WaitOnFlagUntilTimeout.constprop.3+0x42>
 80021ac:	1c6b      	adds	r3, r5, #1
 80021ae:	d0f7      	beq.n	80021a0 <UART_WaitOnFlagUntilTimeout.constprop.3+0xc>
 80021b0:	b995      	cbnz	r5, 80021d8 <UART_WaitOnFlagUntilTimeout.constprop.3+0x44>
 80021b2:	6823      	ldr	r3, [r4, #0]
 80021b4:	2003      	movs	r0, #3
 80021b6:	68da      	ldr	r2, [r3, #12]
 80021b8:	f422 72d0 	bic.w	r2, r2, #416	; 0x1a0
 80021bc:	60da      	str	r2, [r3, #12]
 80021be:	695a      	ldr	r2, [r3, #20]
 80021c0:	f022 0201 	bic.w	r2, r2, #1
 80021c4:	615a      	str	r2, [r3, #20]
 80021c6:	2320      	movs	r3, #32
 80021c8:	f884 3039 	strb.w	r3, [r4, #57]	; 0x39
 80021cc:	f884 303a 	strb.w	r3, [r4, #58]	; 0x3a
 80021d0:	2300      	movs	r3, #0
 80021d2:	f884 3038 	strb.w	r3, [r4, #56]	; 0x38
 80021d6:	bdf8      	pop	{r3, r4, r5, r6, r7, pc}
 80021d8:	f7ff fa1a 	bl	8001610 <HAL_GetTick>
 80021dc:	1bc0      	subs	r0, r0, r7
 80021de:	4285      	cmp	r5, r0
 80021e0:	d2dd      	bcs.n	800219e <UART_WaitOnFlagUntilTimeout.constprop.3+0xa>
 80021e2:	e7e6      	b.n	80021b2 <UART_WaitOnFlagUntilTimeout.constprop.3+0x1e>

080021e4 <HAL_UART_Init>:
 80021e4:	b510      	push	{r4, lr}
 80021e6:	4604      	mov	r4, r0
 80021e8:	b340      	cbz	r0, 800223c <HAL_UART_Init+0x58>
 80021ea:	f890 3039 	ldrb.w	r3, [r0, #57]	; 0x39
 80021ee:	f003 02ff 	and.w	r2, r3, #255	; 0xff
 80021f2:	b91b      	cbnz	r3, 80021fc <HAL_UART_Init+0x18>
 80021f4:	f880 2038 	strb.w	r2, [r0, #56]	; 0x38
 80021f8:	f7ff f8da 	bl	80013b0 <HAL_UART_MspInit>
 80021fc:	2324      	movs	r3, #36	; 0x24
 80021fe:	6822      	ldr	r2, [r4, #0]
 8002200:	f884 3039 	strb.w	r3, [r4, #57]	; 0x39
 8002204:	68d3      	ldr	r3, [r2, #12]
 8002206:	4620      	mov	r0, r4
 8002208:	f423 5300 	bic.w	r3, r3, #8192	; 0x2000
 800220c:	60d3      	str	r3, [r2, #12]
 800220e:	f7ff ff87 	bl	8002120 <UART_SetConfig>
 8002212:	6823      	ldr	r3, [r4, #0]
 8002214:	2000      	movs	r0, #0
 8002216:	691a      	ldr	r2, [r3, #16]
 8002218:	f422 4290 	bic.w	r2, r2, #18432	; 0x4800
 800221c:	611a      	str	r2, [r3, #16]
 800221e:	695a      	ldr	r2, [r3, #20]
 8002220:	f022 022a 	bic.w	r2, r2, #42	; 0x2a
 8002224:	615a      	str	r2, [r3, #20]
 8002226:	68da      	ldr	r2, [r3, #12]
 8002228:	f442 5200 	orr.w	r2, r2, #8192	; 0x2000
 800222c:	60da      	str	r2, [r3, #12]
 800222e:	2320      	movs	r3, #32
 8002230:	63e0      	str	r0, [r4, #60]	; 0x3c
 8002232:	f884 3039 	strb.w	r3, [r4, #57]	; 0x39
 8002236:	f884 303a 	strb.w	r3, [r4, #58]	; 0x3a
 800223a:	bd10      	pop	{r4, pc}
 800223c:	2001      	movs	r0, #1
 800223e:	e7fc      	b.n	800223a <HAL_UART_Init+0x56>

08002240 <HAL_UART_Transmit>:
 8002240:	e92d 43f8 	stmdb	sp!, {r3, r4, r5, r6, r7, r8, r9, lr}
 8002244:	4698      	mov	r8, r3
 8002246:	f890 3039 	ldrb.w	r3, [r0, #57]	; 0x39
 800224a:	4604      	mov	r4, r0
 800224c:	2b20      	cmp	r3, #32
 800224e:	460e      	mov	r6, r1
 8002250:	4691      	mov	r9, r2
 8002252:	d14a      	bne.n	80022ea <HAL_UART_Transmit+0xaa>
 8002254:	2900      	cmp	r1, #0
 8002256:	d046      	beq.n	80022e6 <HAL_UART_Transmit+0xa6>
 8002258:	2a00      	cmp	r2, #0
 800225a:	d044      	beq.n	80022e6 <HAL_UART_Transmit+0xa6>
 800225c:	f890 3038 	ldrb.w	r3, [r0, #56]	; 0x38
 8002260:	2b01      	cmp	r3, #1
 8002262:	d042      	beq.n	80022ea <HAL_UART_Transmit+0xaa>
 8002264:	2301      	movs	r3, #1
 8002266:	2500      	movs	r5, #0
 8002268:	f880 3038 	strb.w	r3, [r0, #56]	; 0x38
 800226c:	2321      	movs	r3, #33	; 0x21
 800226e:	63c5      	str	r5, [r0, #60]	; 0x3c
 8002270:	f880 3039 	strb.w	r3, [r0, #57]	; 0x39
 8002274:	f7ff f9cc 	bl	8001610 <HAL_GetTick>
 8002278:	68a3      	ldr	r3, [r4, #8]
 800227a:	4607      	mov	r7, r0
 800227c:	f5b3 5f80 	cmp.w	r3, #4096	; 0x1000
 8002280:	f8a4 9024 	strh.w	r9, [r4, #36]	; 0x24
 8002284:	f8a4 9026 	strh.w	r9, [r4, #38]	; 0x26
 8002288:	d103      	bne.n	8002292 <HAL_UART_Transmit+0x52>
 800228a:	6923      	ldr	r3, [r4, #16]
 800228c:	b90b      	cbnz	r3, 8002292 <HAL_UART_Transmit+0x52>
 800228e:	4635      	mov	r5, r6
 8002290:	461e      	mov	r6, r3
 8002292:	2300      	movs	r3, #0
 8002294:	f884 3038 	strb.w	r3, [r4, #56]	; 0x38
 8002298:	8ce3      	ldrh	r3, [r4, #38]	; 0x26
 800229a:	b29b      	uxth	r3, r3
 800229c:	b953      	cbnz	r3, 80022b4 <HAL_UART_Transmit+0x74>
 800229e:	4643      	mov	r3, r8
 80022a0:	463a      	mov	r2, r7
 80022a2:	2140      	movs	r1, #64	; 0x40
 80022a4:	4620      	mov	r0, r4
 80022a6:	f7ff ff75 	bl	8002194 <UART_WaitOnFlagUntilTimeout.constprop.3>
 80022aa:	b950      	cbnz	r0, 80022c2 <HAL_UART_Transmit+0x82>
 80022ac:	2320      	movs	r3, #32
 80022ae:	f884 3039 	strb.w	r3, [r4, #57]	; 0x39
 80022b2:	e007      	b.n	80022c4 <HAL_UART_Transmit+0x84>
 80022b4:	4643      	mov	r3, r8
 80022b6:	463a      	mov	r2, r7
 80022b8:	2180      	movs	r1, #128	; 0x80
 80022ba:	4620      	mov	r0, r4
 80022bc:	f7ff ff6a 	bl	8002194 <UART_WaitOnFlagUntilTimeout.constprop.3>
 80022c0:	b110      	cbz	r0, 80022c8 <HAL_UART_Transmit+0x88>
 80022c2:	2003      	movs	r0, #3
 80022c4:	e8bd 83f8 	ldmia.w	sp!, {r3, r4, r5, r6, r7, r8, r9, pc}
 80022c8:	6822      	ldr	r2, [r4, #0]
 80022ca:	b94e      	cbnz	r6, 80022e0 <HAL_UART_Transmit+0xa0>
 80022cc:	f835 3b02 	ldrh.w	r3, [r5], #2
 80022d0:	f3c3 0308 	ubfx	r3, r3, #0, #9
 80022d4:	6053      	str	r3, [r2, #4]
 80022d6:	8ce3      	ldrh	r3, [r4, #38]	; 0x26
 80022d8:	3b01      	subs	r3, #1
 80022da:	b29b      	uxth	r3, r3
 80022dc:	84e3      	strh	r3, [r4, #38]	; 0x26
 80022de:	e7db      	b.n	8002298 <HAL_UART_Transmit+0x58>
 80022e0:	f816 3b01 	ldrb.w	r3, [r6], #1
 80022e4:	e7f6      	b.n	80022d4 <HAL_UART_Transmit+0x94>
 80022e6:	2001      	movs	r0, #1
 80022e8:	e7ec      	b.n	80022c4 <HAL_UART_Transmit+0x84>
 80022ea:	2002      	movs	r0, #2
 80022ec:	e7ea      	b.n	80022c4 <HAL_UART_Transmit+0x84>

080022ee <HAL_UART_Receive>:
 80022ee:	e92d 43f8 	stmdb	sp!, {r3, r4, r5, r6, r7, r8, r9, lr}
 80022f2:	4698      	mov	r8, r3
 80022f4:	f890 303a 	ldrb.w	r3, [r0, #58]	; 0x3a
 80022f8:	4604      	mov	r4, r0
 80022fa:	2b20      	cmp	r3, #32
 80022fc:	460e      	mov	r6, r1
 80022fe:	4691      	mov	r9, r2
 8002300:	d14d      	bne.n	800239e <HAL_UART_Receive+0xb0>
 8002302:	2900      	cmp	r1, #0
 8002304:	d049      	beq.n	800239a <HAL_UART_Receive+0xac>
 8002306:	2a00      	cmp	r2, #0
 8002308:	d047      	beq.n	800239a <HAL_UART_Receive+0xac>
 800230a:	f890 3038 	ldrb.w	r3, [r0, #56]	; 0x38
 800230e:	2b01      	cmp	r3, #1
 8002310:	d045      	beq.n	800239e <HAL_UART_Receive+0xb0>
 8002312:	2301      	movs	r3, #1
 8002314:	2500      	movs	r5, #0
 8002316:	f880 3038 	strb.w	r3, [r0, #56]	; 0x38
 800231a:	2322      	movs	r3, #34	; 0x22
 800231c:	63c5      	str	r5, [r0, #60]	; 0x3c
 800231e:	f880 303a 	strb.w	r3, [r0, #58]	; 0x3a
 8002322:	f7ff f975 	bl	8001610 <HAL_GetTick>
 8002326:	68a3      	ldr	r3, [r4, #8]
 8002328:	4607      	mov	r7, r0
 800232a:	f5b3 5f80 	cmp.w	r3, #4096	; 0x1000
 800232e:	f8a4 902c 	strh.w	r9, [r4, #44]	; 0x2c
 8002332:	f8a4 902e 	strh.w	r9, [r4, #46]	; 0x2e
 8002336:	d103      	bne.n	8002340 <HAL_UART_Receive+0x52>
 8002338:	6923      	ldr	r3, [r4, #16]
 800233a:	b90b      	cbnz	r3, 8002340 <HAL_UART_Receive+0x52>
 800233c:	4635      	mov	r5, r6
 800233e:	461e      	mov	r6, r3
 8002340:	2300      	movs	r3, #0
 8002342:	f884 3038 	strb.w	r3, [r4, #56]	; 0x38
 8002346:	8de0      	ldrh	r0, [r4, #46]	; 0x2e
 8002348:	b280      	uxth	r0, r0
 800234a:	b920      	cbnz	r0, 8002356 <HAL_UART_Receive+0x68>
 800234c:	2320      	movs	r3, #32
 800234e:	f884 303a 	strb.w	r3, [r4, #58]	; 0x3a
 8002352:	e8bd 83f8 	ldmia.w	sp!, {r3, r4, r5, r6, r7, r8, r9, pc}
 8002356:	4643      	mov	r3, r8
 8002358:	463a      	mov	r2, r7
 800235a:	2120      	movs	r1, #32
 800235c:	4620      	mov	r0, r4
 800235e:	f7ff ff19 	bl	8002194 <UART_WaitOnFlagUntilTimeout.constprop.3>
 8002362:	b9f0      	cbnz	r0, 80023a2 <HAL_UART_Receive+0xb4>
 8002364:	6823      	ldr	r3, [r4, #0]
 8002366:	b94e      	cbnz	r6, 800237c <HAL_UART_Receive+0x8e>
 8002368:	685b      	ldr	r3, [r3, #4]
 800236a:	f3c3 0308 	ubfx	r3, r3, #0, #9
 800236e:	f825 3b02 	strh.w	r3, [r5], #2
 8002372:	8de3      	ldrh	r3, [r4, #46]	; 0x2e
 8002374:	3b01      	subs	r3, #1
 8002376:	b29b      	uxth	r3, r3
 8002378:	85e3      	strh	r3, [r4, #46]	; 0x2e
 800237a:	e7e4      	b.n	8002346 <HAL_UART_Receive+0x58>
 800237c:	68a2      	ldr	r2, [r4, #8]
 800237e:	f5b2 5f80 	cmp.w	r2, #4096	; 0x1000
 8002382:	d002      	beq.n	800238a <HAL_UART_Receive+0x9c>
 8002384:	b92a      	cbnz	r2, 8002392 <HAL_UART_Receive+0xa4>
 8002386:	6922      	ldr	r2, [r4, #16]
 8002388:	b91a      	cbnz	r2, 8002392 <HAL_UART_Receive+0xa4>
 800238a:	685b      	ldr	r3, [r3, #4]
 800238c:	7033      	strb	r3, [r6, #0]
 800238e:	3601      	adds	r6, #1
 8002390:	e7ef      	b.n	8002372 <HAL_UART_Receive+0x84>
 8002392:	685b      	ldr	r3, [r3, #4]
 8002394:	f003 037f 	and.w	r3, r3, #127	; 0x7f
 8002398:	e7f8      	b.n	800238c <HAL_UART_Receive+0x9e>
 800239a:	2001      	movs	r0, #1
 800239c:	e7d9      	b.n	8002352 <HAL_UART_Receive+0x64>
 800239e:	2002      	movs	r0, #2
 80023a0:	e7d7      	b.n	8002352 <HAL_UART_Receive+0x64>
 80023a2:	2003      	movs	r0, #3
 80023a4:	e7d5      	b.n	8002352 <HAL_UART_Receive+0x64>

080023a6 <HAL_UART_Receive_IT>:
 80023a6:	f890 303a 	ldrb.w	r3, [r0, #58]	; 0x3a
 80023aa:	2b20      	cmp	r3, #32
 80023ac:	d120      	bne.n	80023f0 <HAL_UART_Receive_IT+0x4a>
 80023ae:	b1e9      	cbz	r1, 80023ec <HAL_UART_Receive_IT+0x46>
 80023b0:	b1e2      	cbz	r2, 80023ec <HAL_UART_Receive_IT+0x46>
 80023b2:	f890 3038 	ldrb.w	r3, [r0, #56]	; 0x38
 80023b6:	2b01      	cmp	r3, #1
 80023b8:	d01a      	beq.n	80023f0 <HAL_UART_Receive_IT+0x4a>
 80023ba:	85c2      	strh	r2, [r0, #46]	; 0x2e
 80023bc:	8582      	strh	r2, [r0, #44]	; 0x2c
 80023be:	2300      	movs	r3, #0
 80023c0:	2222      	movs	r2, #34	; 0x22
 80023c2:	63c3      	str	r3, [r0, #60]	; 0x3c
 80023c4:	f880 203a 	strb.w	r2, [r0, #58]	; 0x3a
 80023c8:	6802      	ldr	r2, [r0, #0]
 80023ca:	6281      	str	r1, [r0, #40]	; 0x28
 80023cc:	68d1      	ldr	r1, [r2, #12]
 80023ce:	f880 3038 	strb.w	r3, [r0, #56]	; 0x38
 80023d2:	f441 7180 	orr.w	r1, r1, #256	; 0x100
 80023d6:	60d1      	str	r1, [r2, #12]
 80023d8:	6951      	ldr	r1, [r2, #20]
 80023da:	4618      	mov	r0, r3
 80023dc:	f041 0101 	orr.w	r1, r1, #1
 80023e0:	6151      	str	r1, [r2, #20]
 80023e2:	68d1      	ldr	r1, [r2, #12]
 80023e4:	f041 0120 	orr.w	r1, r1, #32
 80023e8:	60d1      	str	r1, [r2, #12]
 80023ea:	4770      	bx	lr
 80023ec:	2001      	movs	r0, #1
 80023ee:	4770      	bx	lr
 80023f0:	2002      	movs	r0, #2
 80023f2:	4770      	bx	lr

080023f4 <HAL_UART_TxCpltCallback>:
 80023f4:	4770      	bx	lr

080023f6 <UART_Receive_IT>:
 80023f6:	f890 303a 	ldrb.w	r3, [r0, #58]	; 0x3a
 80023fa:	b510      	push	{r4, lr}
 80023fc:	2b22      	cmp	r3, #34	; 0x22
 80023fe:	d132      	bne.n	8002466 <UART_Receive_IT+0x70>
 8002400:	6881      	ldr	r1, [r0, #8]
 8002402:	6a83      	ldr	r3, [r0, #40]	; 0x28
 8002404:	f5b1 5f80 	cmp.w	r1, #4096	; 0x1000
 8002408:	6802      	ldr	r2, [r0, #0]
 800240a:	d120      	bne.n	800244e <UART_Receive_IT+0x58>
 800240c:	6901      	ldr	r1, [r0, #16]
 800240e:	bb09      	cbnz	r1, 8002454 <UART_Receive_IT+0x5e>
 8002410:	6852      	ldr	r2, [r2, #4]
 8002412:	f3c2 0208 	ubfx	r2, r2, #0, #9
 8002416:	f823 2b02 	strh.w	r2, [r3], #2
 800241a:	8dc4      	ldrh	r4, [r0, #46]	; 0x2e
 800241c:	6283      	str	r3, [r0, #40]	; 0x28
 800241e:	3c01      	subs	r4, #1
 8002420:	b2a4      	uxth	r4, r4
 8002422:	85c4      	strh	r4, [r0, #46]	; 0x2e
 8002424:	b98c      	cbnz	r4, 800244a <UART_Receive_IT+0x54>
 8002426:	6803      	ldr	r3, [r0, #0]
 8002428:	68da      	ldr	r2, [r3, #12]
 800242a:	f022 0220 	bic.w	r2, r2, #32
 800242e:	60da      	str	r2, [r3, #12]
 8002430:	68da      	ldr	r2, [r3, #12]
 8002432:	f422 7280 	bic.w	r2, r2, #256	; 0x100
 8002436:	60da      	str	r2, [r3, #12]
 8002438:	695a      	ldr	r2, [r3, #20]
 800243a:	f022 0201 	bic.w	r2, r2, #1
 800243e:	615a      	str	r2, [r3, #20]
 8002440:	2320      	movs	r3, #32
 8002442:	f880 303a 	strb.w	r3, [r0, #58]	; 0x3a
 8002446:	f7fe f96f 	bl	8000728 <HAL_UART_RxCpltCallback>
 800244a:	2000      	movs	r0, #0
 800244c:	e00c      	b.n	8002468 <UART_Receive_IT+0x72>
 800244e:	b931      	cbnz	r1, 800245e <UART_Receive_IT+0x68>
 8002450:	6901      	ldr	r1, [r0, #16]
 8002452:	b921      	cbnz	r1, 800245e <UART_Receive_IT+0x68>
 8002454:	6852      	ldr	r2, [r2, #4]
 8002456:	701a      	strb	r2, [r3, #0]
 8002458:	6a83      	ldr	r3, [r0, #40]	; 0x28
 800245a:	3301      	adds	r3, #1
 800245c:	e7dd      	b.n	800241a <UART_Receive_IT+0x24>
 800245e:	6852      	ldr	r2, [r2, #4]
 8002460:	f002 027f 	and.w	r2, r2, #127	; 0x7f
 8002464:	e7f7      	b.n	8002456 <UART_Receive_IT+0x60>
 8002466:	2002      	movs	r0, #2
 8002468:	bd10      	pop	{r4, pc}

0800246a <HAL_UART_ErrorCallback>:
 800246a:	4770      	bx	lr

0800246c <HAL_UART_IRQHandler>:
 800246c:	6803      	ldr	r3, [r0, #0]
 800246e:	b570      	push	{r4, r5, r6, lr}
 8002470:	681a      	ldr	r2, [r3, #0]
 8002472:	4604      	mov	r4, r0
 8002474:	0716      	lsls	r6, r2, #28
 8002476:	68d9      	ldr	r1, [r3, #12]
 8002478:	695d      	ldr	r5, [r3, #20]
 800247a:	d107      	bne.n	800248c <HAL_UART_IRQHandler+0x20>
 800247c:	0696      	lsls	r6, r2, #26
 800247e:	d55a      	bpl.n	8002536 <HAL_UART_IRQHandler+0xca>
 8002480:	068d      	lsls	r5, r1, #26
 8002482:	d558      	bpl.n	8002536 <HAL_UART_IRQHandler+0xca>
 8002484:	e8bd 4070 	ldmia.w	sp!, {r4, r5, r6, lr}
 8002488:	f7ff bfb5 	b.w	80023f6 <UART_Receive_IT>
 800248c:	f015 0501 	ands.w	r5, r5, #1
 8002490:	d102      	bne.n	8002498 <HAL_UART_IRQHandler+0x2c>
 8002492:	f411 7f90 	tst.w	r1, #288	; 0x120
 8002496:	d04e      	beq.n	8002536 <HAL_UART_IRQHandler+0xca>
 8002498:	07d0      	lsls	r0, r2, #31
 800249a:	d505      	bpl.n	80024a8 <HAL_UART_IRQHandler+0x3c>
 800249c:	05cb      	lsls	r3, r1, #23
 800249e:	bf42      	ittt	mi
 80024a0:	6be3      	ldrmi	r3, [r4, #60]	; 0x3c
 80024a2:	f043 0301 	orrmi.w	r3, r3, #1
 80024a6:	63e3      	strmi	r3, [r4, #60]	; 0x3c
 80024a8:	0756      	lsls	r6, r2, #29
 80024aa:	d504      	bpl.n	80024b6 <HAL_UART_IRQHandler+0x4a>
 80024ac:	b11d      	cbz	r5, 80024b6 <HAL_UART_IRQHandler+0x4a>
 80024ae:	6be3      	ldr	r3, [r4, #60]	; 0x3c
 80024b0:	f043 0302 	orr.w	r3, r3, #2
 80024b4:	63e3      	str	r3, [r4, #60]	; 0x3c
 80024b6:	0790      	lsls	r0, r2, #30
 80024b8:	d504      	bpl.n	80024c4 <HAL_UART_IRQHandler+0x58>
 80024ba:	b11d      	cbz	r5, 80024c4 <HAL_UART_IRQHandler+0x58>
 80024bc:	6be3      	ldr	r3, [r4, #60]	; 0x3c
 80024be:	f043 0304 	orr.w	r3, r3, #4
 80024c2:	63e3      	str	r3, [r4, #60]	; 0x3c
 80024c4:	0713      	lsls	r3, r2, #28
 80024c6:	d506      	bpl.n	80024d6 <HAL_UART_IRQHandler+0x6a>
 80024c8:	068e      	lsls	r6, r1, #26
 80024ca:	d400      	bmi.n	80024ce <HAL_UART_IRQHandler+0x62>
 80024cc:	b11d      	cbz	r5, 80024d6 <HAL_UART_IRQHandler+0x6a>
 80024ce:	6be3      	ldr	r3, [r4, #60]	; 0x3c
 80024d0:	f043 0308 	orr.w	r3, r3, #8
 80024d4:	63e3      	str	r3, [r4, #60]	; 0x3c
 80024d6:	6be3      	ldr	r3, [r4, #60]	; 0x3c
 80024d8:	b343      	cbz	r3, 800252c <HAL_UART_IRQHandler+0xc0>
 80024da:	0695      	lsls	r5, r2, #26
 80024dc:	d504      	bpl.n	80024e8 <HAL_UART_IRQHandler+0x7c>
 80024de:	0688      	lsls	r0, r1, #26
 80024e0:	d502      	bpl.n	80024e8 <HAL_UART_IRQHandler+0x7c>
 80024e2:	4620      	mov	r0, r4
 80024e4:	f7ff ff87 	bl	80023f6 <UART_Receive_IT>
 80024e8:	6823      	ldr	r3, [r4, #0]
 80024ea:	4620      	mov	r0, r4
 80024ec:	695d      	ldr	r5, [r3, #20]
 80024ee:	6be2      	ldr	r2, [r4, #60]	; 0x3c
 80024f0:	0711      	lsls	r1, r2, #28
 80024f2:	d402      	bmi.n	80024fa <HAL_UART_IRQHandler+0x8e>
 80024f4:	f015 0540 	ands.w	r5, r5, #64	; 0x40
 80024f8:	d019      	beq.n	800252e <HAL_UART_IRQHandler+0xc2>
 80024fa:	f7ff fe03 	bl	8002104 <UART_EndRxTransfer>
 80024fe:	6823      	ldr	r3, [r4, #0]
 8002500:	695a      	ldr	r2, [r3, #20]
 8002502:	0652      	lsls	r2, r2, #25
 8002504:	d50f      	bpl.n	8002526 <HAL_UART_IRQHandler+0xba>
 8002506:	695a      	ldr	r2, [r3, #20]
 8002508:	6b60      	ldr	r0, [r4, #52]	; 0x34
 800250a:	f022 0240 	bic.w	r2, r2, #64	; 0x40
 800250e:	615a      	str	r2, [r3, #20]
 8002510:	b148      	cbz	r0, 8002526 <HAL_UART_IRQHandler+0xba>
 8002512:	4b25      	ldr	r3, [pc, #148]	; (80025a8 <HAL_UART_IRQHandler+0x13c>)
 8002514:	6343      	str	r3, [r0, #52]	; 0x34
 8002516:	f7ff f8d5 	bl	80016c4 <HAL_DMA_Abort_IT>
 800251a:	b138      	cbz	r0, 800252c <HAL_UART_IRQHandler+0xc0>
 800251c:	6b60      	ldr	r0, [r4, #52]	; 0x34
 800251e:	e8bd 4070 	ldmia.w	sp!, {r4, r5, r6, lr}
 8002522:	6b43      	ldr	r3, [r0, #52]	; 0x34
 8002524:	4718      	bx	r3
 8002526:	4620      	mov	r0, r4
 8002528:	f7ff ff9f 	bl	800246a <HAL_UART_ErrorCallback>
 800252c:	bd70      	pop	{r4, r5, r6, pc}
 800252e:	f7ff ff9c 	bl	800246a <HAL_UART_ErrorCallback>
 8002532:	63e5      	str	r5, [r4, #60]	; 0x3c
 8002534:	e7fa      	b.n	800252c <HAL_UART_IRQHandler+0xc0>
 8002536:	0616      	lsls	r6, r2, #24
 8002538:	d526      	bpl.n	8002588 <HAL_UART_IRQHandler+0x11c>
 800253a:	060d      	lsls	r5, r1, #24
 800253c:	d524      	bpl.n	8002588 <HAL_UART_IRQHandler+0x11c>
 800253e:	f894 2039 	ldrb.w	r2, [r4, #57]	; 0x39
 8002542:	2a21      	cmp	r2, #33	; 0x21
 8002544:	d1f2      	bne.n	800252c <HAL_UART_IRQHandler+0xc0>
 8002546:	68a1      	ldr	r1, [r4, #8]
 8002548:	6a22      	ldr	r2, [r4, #32]
 800254a:	f5b1 5f80 	cmp.w	r1, #4096	; 0x1000
 800254e:	d116      	bne.n	800257e <HAL_UART_IRQHandler+0x112>
 8002550:	6921      	ldr	r1, [r4, #16]
 8002552:	b9a1      	cbnz	r1, 800257e <HAL_UART_IRQHandler+0x112>
 8002554:	f832 1b02 	ldrh.w	r1, [r2], #2
 8002558:	f3c1 0108 	ubfx	r1, r1, #0, #9
 800255c:	6059      	str	r1, [r3, #4]
 800255e:	6222      	str	r2, [r4, #32]
 8002560:	8ce2      	ldrh	r2, [r4, #38]	; 0x26
 8002562:	3a01      	subs	r2, #1
 8002564:	b292      	uxth	r2, r2
 8002566:	84e2      	strh	r2, [r4, #38]	; 0x26
 8002568:	2a00      	cmp	r2, #0
 800256a:	d1df      	bne.n	800252c <HAL_UART_IRQHandler+0xc0>
 800256c:	68da      	ldr	r2, [r3, #12]
 800256e:	f022 0280 	bic.w	r2, r2, #128	; 0x80
 8002572:	60da      	str	r2, [r3, #12]
 8002574:	68da      	ldr	r2, [r3, #12]
 8002576:	f042 0240 	orr.w	r2, r2, #64	; 0x40
 800257a:	60da      	str	r2, [r3, #12]
 800257c:	e7d6      	b.n	800252c <HAL_UART_IRQHandler+0xc0>
 800257e:	1c51      	adds	r1, r2, #1
 8002580:	6221      	str	r1, [r4, #32]
 8002582:	7812      	ldrb	r2, [r2, #0]
 8002584:	605a      	str	r2, [r3, #4]
 8002586:	e7eb      	b.n	8002560 <HAL_UART_IRQHandler+0xf4>
 8002588:	0650      	lsls	r0, r2, #25
 800258a:	d5cf      	bpl.n	800252c <HAL_UART_IRQHandler+0xc0>
 800258c:	064a      	lsls	r2, r1, #25
 800258e:	d5cd      	bpl.n	800252c <HAL_UART_IRQHandler+0xc0>
 8002590:	68da      	ldr	r2, [r3, #12]
 8002592:	4620      	mov	r0, r4
 8002594:	f022 0240 	bic.w	r2, r2, #64	; 0x40
 8002598:	60da      	str	r2, [r3, #12]
 800259a:	2320      	movs	r3, #32
 800259c:	f884 3039 	strb.w	r3, [r4, #57]	; 0x39
 80025a0:	f7ff ff28 	bl	80023f4 <HAL_UART_TxCpltCallback>
 80025a4:	e7c2      	b.n	800252c <HAL_UART_IRQHandler+0xc0>
 80025a6:	bf00      	nop
 80025a8:	080025ad 	.word	0x080025ad

080025ac <UART_DMAAbortOnError>:
 80025ac:	b508      	push	{r3, lr}
 80025ae:	2300      	movs	r3, #0
 80025b0:	6a40      	ldr	r0, [r0, #36]	; 0x24
 80025b2:	85c3      	strh	r3, [r0, #46]	; 0x2e
 80025b4:	84c3      	strh	r3, [r0, #38]	; 0x26
 80025b6:	f7ff ff58 	bl	800246a <HAL_UART_ErrorCallback>
 80025ba:	bd08      	pop	{r3, pc}

080025bc <vListInitialise>:
 80025bc:	f04f 32ff 	mov.w	r2, #4294967295	; 0xffffffff
 80025c0:	f100 0308 	add.w	r3, r0, #8
 80025c4:	6043      	str	r3, [r0, #4]
 80025c6:	e9c0 2302 	strd	r2, r3, [r0, #8]
 80025ca:	6103      	str	r3, [r0, #16]
 80025cc:	2300      	movs	r3, #0
 80025ce:	6003      	str	r3, [r0, #0]
 80025d0:	4770      	bx	lr

080025d2 <vListInitialiseItem>:
 80025d2:	2300      	movs	r3, #0
 80025d4:	6103      	str	r3, [r0, #16]
 80025d6:	4770      	bx	lr

080025d8 <vListInsertEnd>:
 80025d8:	6843      	ldr	r3, [r0, #4]
 80025da:	689a      	ldr	r2, [r3, #8]
 80025dc:	604b      	str	r3, [r1, #4]
 80025de:	608a      	str	r2, [r1, #8]
 80025e0:	689a      	ldr	r2, [r3, #8]
 80025e2:	6051      	str	r1, [r2, #4]
 80025e4:	6099      	str	r1, [r3, #8]
 80025e6:	6803      	ldr	r3, [r0, #0]
 80025e8:	6108      	str	r0, [r1, #16]
 80025ea:	3301      	adds	r3, #1
 80025ec:	6003      	str	r3, [r0, #0]
 80025ee:	4770      	bx	lr

080025f0 <vListInsert>:
 80025f0:	680a      	ldr	r2, [r1, #0]
 80025f2:	b530      	push	{r4, r5, lr}
 80025f4:	1c53      	adds	r3, r2, #1
 80025f6:	d10a      	bne.n	800260e <vListInsert+0x1e>
 80025f8:	6903      	ldr	r3, [r0, #16]
 80025fa:	685a      	ldr	r2, [r3, #4]
 80025fc:	604a      	str	r2, [r1, #4]
 80025fe:	6091      	str	r1, [r2, #8]
 8002600:	608b      	str	r3, [r1, #8]
 8002602:	6059      	str	r1, [r3, #4]
 8002604:	6803      	ldr	r3, [r0, #0]
 8002606:	6108      	str	r0, [r1, #16]
 8002608:	3301      	adds	r3, #1
 800260a:	6003      	str	r3, [r0, #0]
 800260c:	bd30      	pop	{r4, r5, pc}
 800260e:	f100 0308 	add.w	r3, r0, #8
 8002612:	685c      	ldr	r4, [r3, #4]
 8002614:	6825      	ldr	r5, [r4, #0]
 8002616:	4295      	cmp	r5, r2
 8002618:	d8ef      	bhi.n	80025fa <vListInsert+0xa>
 800261a:	4623      	mov	r3, r4
 800261c:	e7f9      	b.n	8002612 <vListInsert+0x22>

0800261e <uxListRemove>:
 800261e:	6903      	ldr	r3, [r0, #16]
 8002620:	e9d0 1201 	ldrd	r1, r2, [r0, #4]
 8002624:	608a      	str	r2, [r1, #8]
 8002626:	6882      	ldr	r2, [r0, #8]
 8002628:	6051      	str	r1, [r2, #4]
 800262a:	6859      	ldr	r1, [r3, #4]
 800262c:	4281      	cmp	r1, r0
 800262e:	bf08      	it	eq
 8002630:	605a      	streq	r2, [r3, #4]
 8002632:	2200      	movs	r2, #0
 8002634:	6102      	str	r2, [r0, #16]
 8002636:	681a      	ldr	r2, [r3, #0]
 8002638:	3a01      	subs	r2, #1
 800263a:	601a      	str	r2, [r3, #0]
 800263c:	6818      	ldr	r0, [r3, #0]
 800263e:	4770      	bx	lr

08002640 <prvAddNewTaskToReadyList>:
 8002640:	e92d 41f0 	stmdb	sp!, {r4, r5, r6, r7, r8, lr}
 8002644:	4606      	mov	r6, r0
 8002646:	f000 fbbd 	bl	8002dc4 <vPortEnterCritical>
 800264a:	4b2e      	ldr	r3, [pc, #184]	; (8002704 <prvAddNewTaskToReadyList+0xc4>)
 800264c:	4c2e      	ldr	r4, [pc, #184]	; (8002708 <prvAddNewTaskToReadyList+0xc8>)
 800264e:	681a      	ldr	r2, [r3, #0]
 8002650:	4f2e      	ldr	r7, [pc, #184]	; (800270c <prvAddNewTaskToReadyList+0xcc>)
 8002652:	3201      	adds	r2, #1
 8002654:	601a      	str	r2, [r3, #0]
 8002656:	6825      	ldr	r5, [r4, #0]
 8002658:	2d00      	cmp	r5, #0
 800265a:	d148      	bne.n	80026ee <prvAddNewTaskToReadyList+0xae>
 800265c:	6026      	str	r6, [r4, #0]
 800265e:	681b      	ldr	r3, [r3, #0]
 8002660:	2b01      	cmp	r3, #1
 8002662:	d11f      	bne.n	80026a4 <prvAddNewTaskToReadyList+0x64>
 8002664:	f04f 0814 	mov.w	r8, #20
 8002668:	fb08 7005 	mla	r0, r8, r5, r7
 800266c:	3501      	adds	r5, #1
 800266e:	f7ff ffa5 	bl	80025bc <vListInitialise>
 8002672:	2d07      	cmp	r5, #7
 8002674:	d1f8      	bne.n	8002668 <prvAddNewTaskToReadyList+0x28>
 8002676:	f8df 80c0 	ldr.w	r8, [pc, #192]	; 8002738 <prvAddNewTaskToReadyList+0xf8>
 800267a:	4d25      	ldr	r5, [pc, #148]	; (8002710 <prvAddNewTaskToReadyList+0xd0>)
 800267c:	4640      	mov	r0, r8
 800267e:	f7ff ff9d 	bl	80025bc <vListInitialise>
 8002682:	4628      	mov	r0, r5
 8002684:	f7ff ff9a 	bl	80025bc <vListInitialise>
 8002688:	4822      	ldr	r0, [pc, #136]	; (8002714 <prvAddNewTaskToReadyList+0xd4>)
 800268a:	f7ff ff97 	bl	80025bc <vListInitialise>
 800268e:	4822      	ldr	r0, [pc, #136]	; (8002718 <prvAddNewTaskToReadyList+0xd8>)
 8002690:	f7ff ff94 	bl	80025bc <vListInitialise>
 8002694:	4821      	ldr	r0, [pc, #132]	; (800271c <prvAddNewTaskToReadyList+0xdc>)
 8002696:	f7ff ff91 	bl	80025bc <vListInitialise>
 800269a:	4b21      	ldr	r3, [pc, #132]	; (8002720 <prvAddNewTaskToReadyList+0xe0>)
 800269c:	f8c3 8000 	str.w	r8, [r3]
 80026a0:	4b20      	ldr	r3, [pc, #128]	; (8002724 <prvAddNewTaskToReadyList+0xe4>)
 80026a2:	601d      	str	r5, [r3, #0]
 80026a4:	4a20      	ldr	r2, [pc, #128]	; (8002728 <prvAddNewTaskToReadyList+0xe8>)
 80026a6:	4921      	ldr	r1, [pc, #132]	; (800272c <prvAddNewTaskToReadyList+0xec>)
 80026a8:	6813      	ldr	r3, [r2, #0]
 80026aa:	6808      	ldr	r0, [r1, #0]
 80026ac:	3301      	adds	r3, #1
 80026ae:	6013      	str	r3, [r2, #0]
 80026b0:	2301      	movs	r3, #1
 80026b2:	6af2      	ldr	r2, [r6, #44]	; 0x2c
 80026b4:	4093      	lsls	r3, r2
 80026b6:	4303      	orrs	r3, r0
 80026b8:	2014      	movs	r0, #20
 80026ba:	600b      	str	r3, [r1, #0]
 80026bc:	fb00 7002 	mla	r0, r0, r2, r7
 80026c0:	1d31      	adds	r1, r6, #4
 80026c2:	f7ff ff89 	bl	80025d8 <vListInsertEnd>
 80026c6:	f000 fb9f 	bl	8002e08 <vPortExitCritical>
 80026ca:	4b19      	ldr	r3, [pc, #100]	; (8002730 <prvAddNewTaskToReadyList+0xf0>)
 80026cc:	681b      	ldr	r3, [r3, #0]
 80026ce:	b163      	cbz	r3, 80026ea <prvAddNewTaskToReadyList+0xaa>
 80026d0:	6823      	ldr	r3, [r4, #0]
 80026d2:	6ada      	ldr	r2, [r3, #44]	; 0x2c
 80026d4:	6af3      	ldr	r3, [r6, #44]	; 0x2c
 80026d6:	429a      	cmp	r2, r3
 80026d8:	d207      	bcs.n	80026ea <prvAddNewTaskToReadyList+0xaa>
 80026da:	f04f 5280 	mov.w	r2, #268435456	; 0x10000000
 80026de:	4b15      	ldr	r3, [pc, #84]	; (8002734 <prvAddNewTaskToReadyList+0xf4>)
 80026e0:	601a      	str	r2, [r3, #0]
 80026e2:	f3bf 8f4f 	dsb	sy
 80026e6:	f3bf 8f6f 	isb	sy
 80026ea:	e8bd 81f0 	ldmia.w	sp!, {r4, r5, r6, r7, r8, pc}
 80026ee:	4b10      	ldr	r3, [pc, #64]	; (8002730 <prvAddNewTaskToReadyList+0xf0>)
 80026f0:	681b      	ldr	r3, [r3, #0]
 80026f2:	2b00      	cmp	r3, #0
 80026f4:	d1d6      	bne.n	80026a4 <prvAddNewTaskToReadyList+0x64>
 80026f6:	6823      	ldr	r3, [r4, #0]
 80026f8:	6ada      	ldr	r2, [r3, #44]	; 0x2c
 80026fa:	6af3      	ldr	r3, [r6, #44]	; 0x2c
 80026fc:	429a      	cmp	r2, r3
 80026fe:	bf98      	it	ls
 8002700:	6026      	strls	r6, [r4, #0]
 8002702:	e7cf      	b.n	80026a4 <prvAddNewTaskToReadyList+0x64>
 8002704:	20000908 	.word	0x20000908
 8002708:	20000870 	.word	0x20000870
 800270c:	2000087c 	.word	0x2000087c
 8002710:	20000934 	.word	0x20000934
 8002714:	20000950 	.word	0x20000950
 8002718:	2000097c 	.word	0x2000097c
 800271c:	20000968 	.word	0x20000968
 8002720:	20000874 	.word	0x20000874
 8002724:	20000878 	.word	0x20000878
 8002728:	20000918 	.word	0x20000918
 800272c:	2000091c 	.word	0x2000091c
 8002730:	20000964 	.word	0x20000964
 8002734:	e000ed04 	.word	0xe000ed04
 8002738:	20000920 	.word	0x20000920

0800273c <prvDeleteTCB>:
 800273c:	b510      	push	{r4, lr}
 800273e:	f890 3051 	ldrb.w	r3, [r0, #81]	; 0x51
 8002742:	4604      	mov	r4, r0
 8002744:	b93b      	cbnz	r3, 8002756 <prvDeleteTCB+0x1a>
 8002746:	6b00      	ldr	r0, [r0, #48]	; 0x30
 8002748:	f000 fcce 	bl	80030e8 <vPortFree>
 800274c:	4620      	mov	r0, r4
 800274e:	e8bd 4010 	ldmia.w	sp!, {r4, lr}
 8002752:	f000 bcc9 	b.w	80030e8 <vPortFree>
 8002756:	2b01      	cmp	r3, #1
 8002758:	d0f9      	beq.n	800274e <prvDeleteTCB+0x12>
 800275a:	2b02      	cmp	r3, #2
 800275c:	d008      	beq.n	8002770 <prvDeleteTCB+0x34>
 800275e:	f04f 0350 	mov.w	r3, #80	; 0x50
 8002762:	f383 8811 	msr	BASEPRI, r3
 8002766:	f3bf 8f6f 	isb	sy
 800276a:	f3bf 8f4f 	dsb	sy
 800276e:	e7fe      	b.n	800276e <prvDeleteTCB+0x32>
 8002770:	bd10      	pop	{r4, pc}
	...

08002774 <prvIdleTask>:
 8002774:	b580      	push	{r7, lr}
 8002776:	f8df 805c 	ldr.w	r8, [pc, #92]	; 80027d4 <prvIdleTask+0x60>
 800277a:	4f12      	ldr	r7, [pc, #72]	; (80027c4 <prvIdleTask+0x50>)
 800277c:	4c12      	ldr	r4, [pc, #72]	; (80027c8 <prvIdleTask+0x54>)
 800277e:	4d13      	ldr	r5, [pc, #76]	; (80027cc <prvIdleTask+0x58>)
 8002780:	6823      	ldr	r3, [r4, #0]
 8002782:	b963      	cbnz	r3, 800279e <prvIdleTask+0x2a>
 8002784:	4b12      	ldr	r3, [pc, #72]	; (80027d0 <prvIdleTask+0x5c>)
 8002786:	681b      	ldr	r3, [r3, #0]
 8002788:	2b01      	cmp	r3, #1
 800278a:	d9f8      	bls.n	800277e <prvIdleTask+0xa>
 800278c:	f04f 5380 	mov.w	r3, #268435456	; 0x10000000
 8002790:	f8c8 3000 	str.w	r3, [r8]
 8002794:	f3bf 8f4f 	dsb	sy
 8002798:	f3bf 8f6f 	isb	sy
 800279c:	e7ee      	b.n	800277c <prvIdleTask+0x8>
 800279e:	f000 fb11 	bl	8002dc4 <vPortEnterCritical>
 80027a2:	68fb      	ldr	r3, [r7, #12]
 80027a4:	68de      	ldr	r6, [r3, #12]
 80027a6:	1d30      	adds	r0, r6, #4
 80027a8:	f7ff ff39 	bl	800261e <uxListRemove>
 80027ac:	682b      	ldr	r3, [r5, #0]
 80027ae:	3b01      	subs	r3, #1
 80027b0:	602b      	str	r3, [r5, #0]
 80027b2:	6823      	ldr	r3, [r4, #0]
 80027b4:	3b01      	subs	r3, #1
 80027b6:	6023      	str	r3, [r4, #0]
 80027b8:	f000 fb26 	bl	8002e08 <vPortExitCritical>
 80027bc:	4630      	mov	r0, r6
 80027be:	f7ff ffbd 	bl	800273c <prvDeleteTCB>
 80027c2:	e7dd      	b.n	8002780 <prvIdleTask+0xc>
 80027c4:	2000097c 	.word	0x2000097c
 80027c8:	2000090c 	.word	0x2000090c
 80027cc:	20000908 	.word	0x20000908
 80027d0:	2000087c 	.word	0x2000087c
 80027d4:	e000ed04 	.word	0xe000ed04

080027d8 <prvResetNextTaskUnblockTime>:
 80027d8:	4a06      	ldr	r2, [pc, #24]	; (80027f4 <prvResetNextTaskUnblockTime+0x1c>)
 80027da:	6813      	ldr	r3, [r2, #0]
 80027dc:	6819      	ldr	r1, [r3, #0]
 80027de:	4b06      	ldr	r3, [pc, #24]	; (80027f8 <prvResetNextTaskUnblockTime+0x20>)
 80027e0:	b919      	cbnz	r1, 80027ea <prvResetNextTaskUnblockTime+0x12>
 80027e2:	f04f 32ff 	mov.w	r2, #4294967295	; 0xffffffff
 80027e6:	601a      	str	r2, [r3, #0]
 80027e8:	4770      	bx	lr
 80027ea:	6812      	ldr	r2, [r2, #0]
 80027ec:	68d2      	ldr	r2, [r2, #12]
 80027ee:	68d2      	ldr	r2, [r2, #12]
 80027f0:	6852      	ldr	r2, [r2, #4]
 80027f2:	e7f8      	b.n	80027e6 <prvResetNextTaskUnblockTime+0xe>
 80027f4:	20000874 	.word	0x20000874
 80027f8:	20000948 	.word	0x20000948

080027fc <prvInitialiseNewTask.isra.2>:
 80027fc:	e92d 47f0 	stmdb	sp!, {r4, r5, r6, r7, r8, r9, sl, lr}
 8002800:	4681      	mov	r9, r0
 8002802:	e9dd 8409 	ldrd	r8, r4, [sp, #36]	; 0x24
 8002806:	f102 4280 	add.w	r2, r2, #1073741824	; 0x40000000
 800280a:	6b26      	ldr	r6, [r4, #48]	; 0x30
 800280c:	3a01      	subs	r2, #1
 800280e:	eb06 0682 	add.w	r6, r6, r2, lsl #2
 8002812:	469a      	mov	sl, r3
 8002814:	f026 0607 	bic.w	r6, r6, #7
 8002818:	1e4b      	subs	r3, r1, #1
 800281a:	f104 0234 	add.w	r2, r4, #52	; 0x34
 800281e:	310f      	adds	r1, #15
 8002820:	f813 0f01 	ldrb.w	r0, [r3, #1]!
 8002824:	f802 0b01 	strb.w	r0, [r2], #1
 8002828:	7818      	ldrb	r0, [r3, #0]
 800282a:	b108      	cbz	r0, 8002830 <prvInitialiseNewTask.isra.2+0x34>
 800282c:	428b      	cmp	r3, r1
 800282e:	d1f7      	bne.n	8002820 <prvInitialiseNewTask.isra.2+0x24>
 8002830:	9d08      	ldr	r5, [sp, #32]
 8002832:	2700      	movs	r7, #0
 8002834:	2d06      	cmp	r5, #6
 8002836:	bf28      	it	cs
 8002838:	2506      	movcs	r5, #6
 800283a:	1d20      	adds	r0, r4, #4
 800283c:	62e5      	str	r5, [r4, #44]	; 0x2c
 800283e:	e9c4 5711 	strd	r5, r7, [r4, #68]	; 0x44
 8002842:	f884 7043 	strb.w	r7, [r4, #67]	; 0x43
 8002846:	f7ff fec4 	bl	80025d2 <vListInitialiseItem>
 800284a:	f1c5 0507 	rsb	r5, r5, #7
 800284e:	f104 0018 	add.w	r0, r4, #24
 8002852:	f7ff febe 	bl	80025d2 <vListInitialiseItem>
 8002856:	64e7      	str	r7, [r4, #76]	; 0x4c
 8002858:	6124      	str	r4, [r4, #16]
 800285a:	61a5      	str	r5, [r4, #24]
 800285c:	6264      	str	r4, [r4, #36]	; 0x24
 800285e:	f884 7050 	strb.w	r7, [r4, #80]	; 0x50
 8002862:	4652      	mov	r2, sl
 8002864:	4649      	mov	r1, r9
 8002866:	4630      	mov	r0, r6
 8002868:	f000 fa86 	bl	8002d78 <pxPortInitialiseStack>
 800286c:	6020      	str	r0, [r4, #0]
 800286e:	f1b8 0f00 	cmp.w	r8, #0
 8002872:	d001      	beq.n	8002878 <prvInitialiseNewTask.isra.2+0x7c>
 8002874:	f8c8 4000 	str.w	r4, [r8]
 8002878:	e8bd 87f0 	ldmia.w	sp!, {r4, r5, r6, r7, r8, r9, sl, pc}

0800287c <prvAddCurrentTaskToDelayedList>:
 800287c:	b5f8      	push	{r3, r4, r5, r6, r7, lr}
 800287e:	4b1b      	ldr	r3, [pc, #108]	; (80028ec <prvAddCurrentTaskToDelayedList+0x70>)
 8002880:	4e1b      	ldr	r6, [pc, #108]	; (80028f0 <prvAddCurrentTaskToDelayedList+0x74>)
 8002882:	681c      	ldr	r4, [r3, #0]
 8002884:	4605      	mov	r5, r0
 8002886:	6830      	ldr	r0, [r6, #0]
 8002888:	460f      	mov	r7, r1
 800288a:	3004      	adds	r0, #4
 800288c:	f7ff fec7 	bl	800261e <uxListRemove>
 8002890:	4633      	mov	r3, r6
 8002892:	b940      	cbnz	r0, 80028a6 <prvAddCurrentTaskToDelayedList+0x2a>
 8002894:	2001      	movs	r0, #1
 8002896:	6831      	ldr	r1, [r6, #0]
 8002898:	4e16      	ldr	r6, [pc, #88]	; (80028f4 <prvAddCurrentTaskToDelayedList+0x78>)
 800289a:	6ac9      	ldr	r1, [r1, #44]	; 0x2c
 800289c:	6832      	ldr	r2, [r6, #0]
 800289e:	4088      	lsls	r0, r1
 80028a0:	ea22 0200 	bic.w	r2, r2, r0
 80028a4:	6032      	str	r2, [r6, #0]
 80028a6:	1c6a      	adds	r2, r5, #1
 80028a8:	d107      	bne.n	80028ba <prvAddCurrentTaskToDelayedList+0x3e>
 80028aa:	b137      	cbz	r7, 80028ba <prvAddCurrentTaskToDelayedList+0x3e>
 80028ac:	6819      	ldr	r1, [r3, #0]
 80028ae:	4812      	ldr	r0, [pc, #72]	; (80028f8 <prvAddCurrentTaskToDelayedList+0x7c>)
 80028b0:	3104      	adds	r1, #4
 80028b2:	e8bd 40f8 	ldmia.w	sp!, {r3, r4, r5, r6, r7, lr}
 80028b6:	f7ff be8f 	b.w	80025d8 <vListInsertEnd>
 80028ba:	681a      	ldr	r2, [r3, #0]
 80028bc:	1964      	adds	r4, r4, r5
 80028be:	6054      	str	r4, [r2, #4]
 80028c0:	d307      	bcc.n	80028d2 <prvAddCurrentTaskToDelayedList+0x56>
 80028c2:	4a0e      	ldr	r2, [pc, #56]	; (80028fc <prvAddCurrentTaskToDelayedList+0x80>)
 80028c4:	6810      	ldr	r0, [r2, #0]
 80028c6:	6819      	ldr	r1, [r3, #0]
 80028c8:	e8bd 40f8 	ldmia.w	sp!, {r3, r4, r5, r6, r7, lr}
 80028cc:	3104      	adds	r1, #4
 80028ce:	f7ff be8f 	b.w	80025f0 <vListInsert>
 80028d2:	4a0b      	ldr	r2, [pc, #44]	; (8002900 <prvAddCurrentTaskToDelayedList+0x84>)
 80028d4:	6810      	ldr	r0, [r2, #0]
 80028d6:	6819      	ldr	r1, [r3, #0]
 80028d8:	3104      	adds	r1, #4
 80028da:	f7ff fe89 	bl	80025f0 <vListInsert>
 80028de:	4b09      	ldr	r3, [pc, #36]	; (8002904 <prvAddCurrentTaskToDelayedList+0x88>)
 80028e0:	681a      	ldr	r2, [r3, #0]
 80028e2:	42a2      	cmp	r2, r4
 80028e4:	bf88      	it	hi
 80028e6:	601c      	strhi	r4, [r3, #0]
 80028e8:	bdf8      	pop	{r3, r4, r5, r6, r7, pc}
 80028ea:	bf00      	nop
 80028ec:	20000990 	.word	0x20000990
 80028f0:	20000870 	.word	0x20000870
 80028f4:	2000091c 	.word	0x2000091c
 80028f8:	20000968 	.word	0x20000968
 80028fc:	20000878 	.word	0x20000878
 8002900:	20000874 	.word	0x20000874
 8002904:	20000948 	.word	0x20000948

08002908 <xTaskCreateStatic>:
 8002908:	b570      	push	{r4, r5, r6, lr}
 800290a:	b086      	sub	sp, #24
 800290c:	e9dd 540b 	ldrd	r5, r4, [sp, #44]	; 0x2c
 8002910:	b945      	cbnz	r5, 8002924 <xTaskCreateStatic+0x1c>
 8002912:	f04f 0350 	mov.w	r3, #80	; 0x50
 8002916:	f383 8811 	msr	BASEPRI, r3
 800291a:	f3bf 8f6f 	isb	sy
 800291e:	f3bf 8f4f 	dsb	sy
 8002922:	e7fe      	b.n	8002922 <xTaskCreateStatic+0x1a>
 8002924:	b944      	cbnz	r4, 8002938 <xTaskCreateStatic+0x30>
 8002926:	f04f 0350 	mov.w	r3, #80	; 0x50
 800292a:	f383 8811 	msr	BASEPRI, r3
 800292e:	f3bf 8f6f 	isb	sy
 8002932:	f3bf 8f4f 	dsb	sy
 8002936:	e7fe      	b.n	8002936 <xTaskCreateStatic+0x2e>
 8002938:	2654      	movs	r6, #84	; 0x54
 800293a:	9604      	str	r6, [sp, #16]
 800293c:	9e04      	ldr	r6, [sp, #16]
 800293e:	2e54      	cmp	r6, #84	; 0x54
 8002940:	d008      	beq.n	8002954 <xTaskCreateStatic+0x4c>
 8002942:	f04f 0350 	mov.w	r3, #80	; 0x50
 8002946:	f383 8811 	msr	BASEPRI, r3
 800294a:	f3bf 8f6f 	isb	sy
 800294e:	f3bf 8f4f 	dsb	sy
 8002952:	e7fe      	b.n	8002952 <xTaskCreateStatic+0x4a>
 8002954:	6325      	str	r5, [r4, #48]	; 0x30
 8002956:	2502      	movs	r5, #2
 8002958:	f884 5051 	strb.w	r5, [r4, #81]	; 0x51
 800295c:	ad05      	add	r5, sp, #20
 800295e:	9501      	str	r5, [sp, #4]
 8002960:	9d0a      	ldr	r5, [sp, #40]	; 0x28
 8002962:	9402      	str	r4, [sp, #8]
 8002964:	9500      	str	r5, [sp, #0]
 8002966:	f7ff ff49 	bl	80027fc <prvInitialiseNewTask.isra.2>
 800296a:	4620      	mov	r0, r4
 800296c:	f7ff fe68 	bl	8002640 <prvAddNewTaskToReadyList>
 8002970:	9805      	ldr	r0, [sp, #20]
 8002972:	b006      	add	sp, #24
 8002974:	bd70      	pop	{r4, r5, r6, pc}

08002976 <xTaskCreate>:
 8002976:	e92d 43f0 	stmdb	sp!, {r4, r5, r6, r7, r8, r9, lr}
 800297a:	4607      	mov	r7, r0
 800297c:	b085      	sub	sp, #20
 800297e:	0090      	lsls	r0, r2, #2
 8002980:	4688      	mov	r8, r1
 8002982:	4616      	mov	r6, r2
 8002984:	4699      	mov	r9, r3
 8002986:	f000 fb23 	bl	8002fd0 <pvPortMalloc>
 800298a:	4605      	mov	r5, r0
 800298c:	b1e8      	cbz	r0, 80029ca <xTaskCreate+0x54>
 800298e:	2054      	movs	r0, #84	; 0x54
 8002990:	f000 fb1e 	bl	8002fd0 <pvPortMalloc>
 8002994:	4604      	mov	r4, r0
 8002996:	b1a8      	cbz	r0, 80029c4 <xTaskCreate+0x4e>
 8002998:	2300      	movs	r3, #0
 800299a:	f880 3051 	strb.w	r3, [r0, #81]	; 0x51
 800299e:	9b0d      	ldr	r3, [sp, #52]	; 0x34
 80029a0:	6305      	str	r5, [r0, #48]	; 0x30
 80029a2:	9301      	str	r3, [sp, #4]
 80029a4:	9b0c      	ldr	r3, [sp, #48]	; 0x30
 80029a6:	9002      	str	r0, [sp, #8]
 80029a8:	9300      	str	r3, [sp, #0]
 80029aa:	4632      	mov	r2, r6
 80029ac:	464b      	mov	r3, r9
 80029ae:	4641      	mov	r1, r8
 80029b0:	4638      	mov	r0, r7
 80029b2:	f7ff ff23 	bl	80027fc <prvInitialiseNewTask.isra.2>
 80029b6:	4620      	mov	r0, r4
 80029b8:	f7ff fe42 	bl	8002640 <prvAddNewTaskToReadyList>
 80029bc:	2001      	movs	r0, #1
 80029be:	b005      	add	sp, #20
 80029c0:	e8bd 83f0 	ldmia.w	sp!, {r4, r5, r6, r7, r8, r9, pc}
 80029c4:	4628      	mov	r0, r5
 80029c6:	f000 fb8f 	bl	80030e8 <vPortFree>
 80029ca:	f04f 30ff 	mov.w	r0, #4294967295	; 0xffffffff
 80029ce:	e7f6      	b.n	80029be <xTaskCreate+0x48>

080029d0 <vTaskStartScheduler>:
 80029d0:	b510      	push	{r4, lr}
 80029d2:	2400      	movs	r4, #0
 80029d4:	b088      	sub	sp, #32
 80029d6:	aa07      	add	r2, sp, #28
 80029d8:	a906      	add	r1, sp, #24
 80029da:	a805      	add	r0, sp, #20
 80029dc:	e9cd 4405 	strd	r4, r4, [sp, #20]
 80029e0:	f7fd fbc8 	bl	8000174 <vApplicationGetIdleTaskMemory>
 80029e4:	9b05      	ldr	r3, [sp, #20]
 80029e6:	9a07      	ldr	r2, [sp, #28]
 80029e8:	9302      	str	r3, [sp, #8]
 80029ea:	9b06      	ldr	r3, [sp, #24]
 80029ec:	490e      	ldr	r1, [pc, #56]	; (8002a28 <vTaskStartScheduler+0x58>)
 80029ee:	e9cd 4300 	strd	r4, r3, [sp]
 80029f2:	480e      	ldr	r0, [pc, #56]	; (8002a2c <vTaskStartScheduler+0x5c>)
 80029f4:	4623      	mov	r3, r4
 80029f6:	f7ff ff87 	bl	8002908 <xTaskCreateStatic>
 80029fa:	b190      	cbz	r0, 8002a22 <vTaskStartScheduler+0x52>
 80029fc:	f04f 0350 	mov.w	r3, #80	; 0x50
 8002a00:	f383 8811 	msr	BASEPRI, r3
 8002a04:	f3bf 8f6f 	isb	sy
 8002a08:	f3bf 8f4f 	dsb	sy
 8002a0c:	f04f 32ff 	mov.w	r2, #4294967295	; 0xffffffff
 8002a10:	4b07      	ldr	r3, [pc, #28]	; (8002a30 <vTaskStartScheduler+0x60>)
 8002a12:	601a      	str	r2, [r3, #0]
 8002a14:	2201      	movs	r2, #1
 8002a16:	4b07      	ldr	r3, [pc, #28]	; (8002a34 <vTaskStartScheduler+0x64>)
 8002a18:	601a      	str	r2, [r3, #0]
 8002a1a:	4b07      	ldr	r3, [pc, #28]	; (8002a38 <vTaskStartScheduler+0x68>)
 8002a1c:	601c      	str	r4, [r3, #0]
 8002a1e:	f000 fa59 	bl	8002ed4 <xPortStartScheduler>
 8002a22:	b008      	add	sp, #32
 8002a24:	bd10      	pop	{r4, pc}
 8002a26:	bf00      	nop
 8002a28:	0800489b 	.word	0x0800489b
 8002a2c:	08002775 	.word	0x08002775
 8002a30:	20000948 	.word	0x20000948
 8002a34:	20000964 	.word	0x20000964
 8002a38:	20000990 	.word	0x20000990

08002a3c <vTaskSuspendAll>:
 8002a3c:	4a02      	ldr	r2, [pc, #8]	; (8002a48 <vTaskSuspendAll+0xc>)
 8002a3e:	6813      	ldr	r3, [r2, #0]
 8002a40:	3301      	adds	r3, #1
 8002a42:	6013      	str	r3, [r2, #0]
 8002a44:	4770      	bx	lr
 8002a46:	bf00      	nop
 8002a48:	20000914 	.word	0x20000914

08002a4c <xTaskIncrementTick>:
 8002a4c:	e92d 4ff8 	stmdb	sp!, {r3, r4, r5, r6, r7, r8, r9, sl, fp, lr}
 8002a50:	4b3c      	ldr	r3, [pc, #240]	; (8002b44 <xTaskIncrementTick+0xf8>)
 8002a52:	681b      	ldr	r3, [r3, #0]
 8002a54:	2b00      	cmp	r3, #0
 8002a56:	d16e      	bne.n	8002b36 <xTaskIncrementTick+0xea>
 8002a58:	4b3b      	ldr	r3, [pc, #236]	; (8002b48 <xTaskIncrementTick+0xfc>)
 8002a5a:	681c      	ldr	r4, [r3, #0]
 8002a5c:	3401      	adds	r4, #1
 8002a5e:	601c      	str	r4, [r3, #0]
 8002a60:	b9bc      	cbnz	r4, 8002a92 <xTaskIncrementTick+0x46>
 8002a62:	4b3a      	ldr	r3, [pc, #232]	; (8002b4c <xTaskIncrementTick+0x100>)
 8002a64:	681a      	ldr	r2, [r3, #0]
 8002a66:	6812      	ldr	r2, [r2, #0]
 8002a68:	b142      	cbz	r2, 8002a7c <xTaskIncrementTick+0x30>
 8002a6a:	f04f 0350 	mov.w	r3, #80	; 0x50
 8002a6e:	f383 8811 	msr	BASEPRI, r3
 8002a72:	f3bf 8f6f 	isb	sy
 8002a76:	f3bf 8f4f 	dsb	sy
 8002a7a:	e7fe      	b.n	8002a7a <xTaskIncrementTick+0x2e>
 8002a7c:	4a34      	ldr	r2, [pc, #208]	; (8002b50 <xTaskIncrementTick+0x104>)
 8002a7e:	6819      	ldr	r1, [r3, #0]
 8002a80:	6810      	ldr	r0, [r2, #0]
 8002a82:	6018      	str	r0, [r3, #0]
 8002a84:	6011      	str	r1, [r2, #0]
 8002a86:	4a33      	ldr	r2, [pc, #204]	; (8002b54 <xTaskIncrementTick+0x108>)
 8002a88:	6813      	ldr	r3, [r2, #0]
 8002a8a:	3301      	adds	r3, #1
 8002a8c:	6013      	str	r3, [r2, #0]
 8002a8e:	f7ff fea3 	bl	80027d8 <prvResetNextTaskUnblockTime>
 8002a92:	4d31      	ldr	r5, [pc, #196]	; (8002b58 <xTaskIncrementTick+0x10c>)
 8002a94:	f04f 0b00 	mov.w	fp, #0
 8002a98:	682b      	ldr	r3, [r5, #0]
 8002a9a:	4f30      	ldr	r7, [pc, #192]	; (8002b5c <xTaskIncrementTick+0x110>)
 8002a9c:	42a3      	cmp	r3, r4
 8002a9e:	d911      	bls.n	8002ac4 <xTaskIncrementTick+0x78>
 8002aa0:	683a      	ldr	r2, [r7, #0]
 8002aa2:	4b2f      	ldr	r3, [pc, #188]	; (8002b60 <xTaskIncrementTick+0x114>)
 8002aa4:	6ad1      	ldr	r1, [r2, #44]	; 0x2c
 8002aa6:	2214      	movs	r2, #20
 8002aa8:	434a      	muls	r2, r1
 8002aaa:	589a      	ldr	r2, [r3, r2]
 8002aac:	2a02      	cmp	r2, #2
 8002aae:	bf28      	it	cs
 8002ab0:	f04f 0b01 	movcs.w	fp, #1
 8002ab4:	4a2b      	ldr	r2, [pc, #172]	; (8002b64 <xTaskIncrementTick+0x118>)
 8002ab6:	6812      	ldr	r2, [r2, #0]
 8002ab8:	2a00      	cmp	r2, #0
 8002aba:	bf0c      	ite	eq
 8002abc:	4658      	moveq	r0, fp
 8002abe:	2001      	movne	r0, #1
 8002ac0:	e8bd 8ff8 	ldmia.w	sp!, {r3, r4, r5, r6, r7, r8, r9, sl, fp, pc}
 8002ac4:	f8df a084 	ldr.w	sl, [pc, #132]	; 8002b4c <xTaskIncrementTick+0x100>
 8002ac8:	f8df 90a0 	ldr.w	r9, [pc, #160]	; 8002b6c <xTaskIncrementTick+0x120>
 8002acc:	f8da 2000 	ldr.w	r2, [sl]
 8002ad0:	6812      	ldr	r2, [r2, #0]
 8002ad2:	b91a      	cbnz	r2, 8002adc <xTaskIncrementTick+0x90>
 8002ad4:	f04f 32ff 	mov.w	r2, #4294967295	; 0xffffffff
 8002ad8:	602a      	str	r2, [r5, #0]
 8002ada:	e7e1      	b.n	8002aa0 <xTaskIncrementTick+0x54>
 8002adc:	f8da 2000 	ldr.w	r2, [sl]
 8002ae0:	68d2      	ldr	r2, [r2, #12]
 8002ae2:	68d6      	ldr	r6, [r2, #12]
 8002ae4:	6871      	ldr	r1, [r6, #4]
 8002ae6:	428c      	cmp	r4, r1
 8002ae8:	d201      	bcs.n	8002aee <xTaskIncrementTick+0xa2>
 8002aea:	6029      	str	r1, [r5, #0]
 8002aec:	e7d8      	b.n	8002aa0 <xTaskIncrementTick+0x54>
 8002aee:	f106 0804 	add.w	r8, r6, #4
 8002af2:	4640      	mov	r0, r8
 8002af4:	f7ff fd93 	bl	800261e <uxListRemove>
 8002af8:	6ab1      	ldr	r1, [r6, #40]	; 0x28
 8002afa:	b119      	cbz	r1, 8002b04 <xTaskIncrementTick+0xb8>
 8002afc:	f106 0018 	add.w	r0, r6, #24
 8002b00:	f7ff fd8d 	bl	800261e <uxListRemove>
 8002b04:	2201      	movs	r2, #1
 8002b06:	f04f 0c14 	mov.w	ip, #20
 8002b0a:	6af0      	ldr	r0, [r6, #44]	; 0x2c
 8002b0c:	f8d9 3000 	ldr.w	r3, [r9]
 8002b10:	fa02 f100 	lsl.w	r1, r2, r0
 8002b14:	4319      	orrs	r1, r3
 8002b16:	4b12      	ldr	r3, [pc, #72]	; (8002b60 <xTaskIncrementTick+0x114>)
 8002b18:	f8c9 1000 	str.w	r1, [r9]
 8002b1c:	fb0c 3000 	mla	r0, ip, r0, r3
 8002b20:	4641      	mov	r1, r8
 8002b22:	f7ff fd59 	bl	80025d8 <vListInsertEnd>
 8002b26:	6838      	ldr	r0, [r7, #0]
 8002b28:	6af1      	ldr	r1, [r6, #44]	; 0x2c
 8002b2a:	6ac2      	ldr	r2, [r0, #44]	; 0x2c
 8002b2c:	4291      	cmp	r1, r2
 8002b2e:	bf28      	it	cs
 8002b30:	f04f 0b01 	movcs.w	fp, #1
 8002b34:	e7ca      	b.n	8002acc <xTaskIncrementTick+0x80>
 8002b36:	4a0c      	ldr	r2, [pc, #48]	; (8002b68 <xTaskIncrementTick+0x11c>)
 8002b38:	f04f 0b00 	mov.w	fp, #0
 8002b3c:	6813      	ldr	r3, [r2, #0]
 8002b3e:	3301      	adds	r3, #1
 8002b40:	6013      	str	r3, [r2, #0]
 8002b42:	e7b7      	b.n	8002ab4 <xTaskIncrementTick+0x68>
 8002b44:	20000914 	.word	0x20000914
 8002b48:	20000990 	.word	0x20000990
 8002b4c:	20000874 	.word	0x20000874
 8002b50:	20000878 	.word	0x20000878
 8002b54:	2000094c 	.word	0x2000094c
 8002b58:	20000948 	.word	0x20000948
 8002b5c:	20000870 	.word	0x20000870
 8002b60:	2000087c 	.word	0x2000087c
 8002b64:	20000994 	.word	0x20000994
 8002b68:	20000910 	.word	0x20000910
 8002b6c:	2000091c 	.word	0x2000091c

08002b70 <xTaskResumeAll>:
 8002b70:	e92d 43f8 	stmdb	sp!, {r3, r4, r5, r6, r7, r8, r9, lr}
 8002b74:	4c30      	ldr	r4, [pc, #192]	; (8002c38 <xTaskResumeAll+0xc8>)
 8002b76:	6823      	ldr	r3, [r4, #0]
 8002b78:	b943      	cbnz	r3, 8002b8c <xTaskResumeAll+0x1c>
 8002b7a:	f04f 0350 	mov.w	r3, #80	; 0x50
 8002b7e:	f383 8811 	msr	BASEPRI, r3
 8002b82:	f3bf 8f6f 	isb	sy
 8002b86:	f3bf 8f4f 	dsb	sy
 8002b8a:	e7fe      	b.n	8002b8a <xTaskResumeAll+0x1a>
 8002b8c:	f000 f91a 	bl	8002dc4 <vPortEnterCritical>
 8002b90:	6823      	ldr	r3, [r4, #0]
 8002b92:	3b01      	subs	r3, #1
 8002b94:	6023      	str	r3, [r4, #0]
 8002b96:	6824      	ldr	r4, [r4, #0]
 8002b98:	b12c      	cbz	r4, 8002ba6 <xTaskResumeAll+0x36>
 8002b9a:	2400      	movs	r4, #0
 8002b9c:	f000 f934 	bl	8002e08 <vPortExitCritical>
 8002ba0:	4620      	mov	r0, r4
 8002ba2:	e8bd 83f8 	ldmia.w	sp!, {r3, r4, r5, r6, r7, r8, r9, pc}
 8002ba6:	4b25      	ldr	r3, [pc, #148]	; (8002c3c <xTaskResumeAll+0xcc>)
 8002ba8:	681b      	ldr	r3, [r3, #0]
 8002baa:	2b00      	cmp	r3, #0
 8002bac:	d0f5      	beq.n	8002b9a <xTaskResumeAll+0x2a>
 8002bae:	4d24      	ldr	r5, [pc, #144]	; (8002c40 <xTaskResumeAll+0xd0>)
 8002bb0:	4e24      	ldr	r6, [pc, #144]	; (8002c44 <xTaskResumeAll+0xd4>)
 8002bb2:	f8df 80a4 	ldr.w	r8, [pc, #164]	; 8002c58 <xTaskResumeAll+0xe8>
 8002bb6:	e01f      	b.n	8002bf8 <xTaskResumeAll+0x88>
 8002bb8:	68eb      	ldr	r3, [r5, #12]
 8002bba:	2701      	movs	r7, #1
 8002bbc:	68dc      	ldr	r4, [r3, #12]
 8002bbe:	f104 0904 	add.w	r9, r4, #4
 8002bc2:	f104 0018 	add.w	r0, r4, #24
 8002bc6:	f7ff fd2a 	bl	800261e <uxListRemove>
 8002bca:	4648      	mov	r0, r9
 8002bcc:	f7ff fd27 	bl	800261e <uxListRemove>
 8002bd0:	2014      	movs	r0, #20
 8002bd2:	6ae2      	ldr	r2, [r4, #44]	; 0x2c
 8002bd4:	6831      	ldr	r1, [r6, #0]
 8002bd6:	fa07 f302 	lsl.w	r3, r7, r2
 8002bda:	430b      	orrs	r3, r1
 8002bdc:	fb00 8002 	mla	r0, r0, r2, r8
 8002be0:	4649      	mov	r1, r9
 8002be2:	6033      	str	r3, [r6, #0]
 8002be4:	f7ff fcf8 	bl	80025d8 <vListInsertEnd>
 8002be8:	4b17      	ldr	r3, [pc, #92]	; (8002c48 <xTaskResumeAll+0xd8>)
 8002bea:	6ae2      	ldr	r2, [r4, #44]	; 0x2c
 8002bec:	681b      	ldr	r3, [r3, #0]
 8002bee:	6adb      	ldr	r3, [r3, #44]	; 0x2c
 8002bf0:	429a      	cmp	r2, r3
 8002bf2:	d301      	bcc.n	8002bf8 <xTaskResumeAll+0x88>
 8002bf4:	4b15      	ldr	r3, [pc, #84]	; (8002c4c <xTaskResumeAll+0xdc>)
 8002bf6:	601f      	str	r7, [r3, #0]
 8002bf8:	682b      	ldr	r3, [r5, #0]
 8002bfa:	2b00      	cmp	r3, #0
 8002bfc:	d1dc      	bne.n	8002bb8 <xTaskResumeAll+0x48>
 8002bfe:	b10c      	cbz	r4, 8002c04 <xTaskResumeAll+0x94>
 8002c00:	f7ff fdea 	bl	80027d8 <prvResetNextTaskUnblockTime>
 8002c04:	4d12      	ldr	r5, [pc, #72]	; (8002c50 <xTaskResumeAll+0xe0>)
 8002c06:	682c      	ldr	r4, [r5, #0]
 8002c08:	b144      	cbz	r4, 8002c1c <xTaskResumeAll+0xac>
 8002c0a:	2701      	movs	r7, #1
 8002c0c:	4e0f      	ldr	r6, [pc, #60]	; (8002c4c <xTaskResumeAll+0xdc>)
 8002c0e:	f7ff ff1d 	bl	8002a4c <xTaskIncrementTick>
 8002c12:	b100      	cbz	r0, 8002c16 <xTaskResumeAll+0xa6>
 8002c14:	6037      	str	r7, [r6, #0]
 8002c16:	3c01      	subs	r4, #1
 8002c18:	d1f9      	bne.n	8002c0e <xTaskResumeAll+0x9e>
 8002c1a:	602c      	str	r4, [r5, #0]
 8002c1c:	4b0b      	ldr	r3, [pc, #44]	; (8002c4c <xTaskResumeAll+0xdc>)
 8002c1e:	681b      	ldr	r3, [r3, #0]
 8002c20:	2b00      	cmp	r3, #0
 8002c22:	d0ba      	beq.n	8002b9a <xTaskResumeAll+0x2a>
 8002c24:	f04f 5280 	mov.w	r2, #268435456	; 0x10000000
 8002c28:	4b0a      	ldr	r3, [pc, #40]	; (8002c54 <xTaskResumeAll+0xe4>)
 8002c2a:	601a      	str	r2, [r3, #0]
 8002c2c:	f3bf 8f4f 	dsb	sy
 8002c30:	f3bf 8f6f 	isb	sy
 8002c34:	2401      	movs	r4, #1
 8002c36:	e7b1      	b.n	8002b9c <xTaskResumeAll+0x2c>
 8002c38:	20000914 	.word	0x20000914
 8002c3c:	20000908 	.word	0x20000908
 8002c40:	20000950 	.word	0x20000950
 8002c44:	2000091c 	.word	0x2000091c
 8002c48:	20000870 	.word	0x20000870
 8002c4c:	20000994 	.word	0x20000994
 8002c50:	20000910 	.word	0x20000910
 8002c54:	e000ed04 	.word	0xe000ed04
 8002c58:	2000087c 	.word	0x2000087c

08002c5c <vTaskDelay>:
 8002c5c:	b508      	push	{r3, lr}
 8002c5e:	b940      	cbnz	r0, 8002c72 <vTaskDelay+0x16>
 8002c60:	f04f 5280 	mov.w	r2, #268435456	; 0x10000000
 8002c64:	4b0d      	ldr	r3, [pc, #52]	; (8002c9c <vTaskDelay+0x40>)
 8002c66:	601a      	str	r2, [r3, #0]
 8002c68:	f3bf 8f4f 	dsb	sy
 8002c6c:	f3bf 8f6f 	isb	sy
 8002c70:	bd08      	pop	{r3, pc}
 8002c72:	4b0b      	ldr	r3, [pc, #44]	; (8002ca0 <vTaskDelay+0x44>)
 8002c74:	6819      	ldr	r1, [r3, #0]
 8002c76:	b141      	cbz	r1, 8002c8a <vTaskDelay+0x2e>
 8002c78:	f04f 0350 	mov.w	r3, #80	; 0x50
 8002c7c:	f383 8811 	msr	BASEPRI, r3
 8002c80:	f3bf 8f6f 	isb	sy
 8002c84:	f3bf 8f4f 	dsb	sy
 8002c88:	e7fe      	b.n	8002c88 <vTaskDelay+0x2c>
 8002c8a:	f7ff fed7 	bl	8002a3c <vTaskSuspendAll>
 8002c8e:	f7ff fdf5 	bl	800287c <prvAddCurrentTaskToDelayedList>
 8002c92:	f7ff ff6d 	bl	8002b70 <xTaskResumeAll>
 8002c96:	2800      	cmp	r0, #0
 8002c98:	d0e2      	beq.n	8002c60 <vTaskDelay+0x4>
 8002c9a:	e7e9      	b.n	8002c70 <vTaskDelay+0x14>
 8002c9c:	e000ed04 	.word	0xe000ed04
 8002ca0:	20000914 	.word	0x20000914

08002ca4 <vTaskSwitchContext>:
 8002ca4:	4b17      	ldr	r3, [pc, #92]	; (8002d04 <vTaskSwitchContext+0x60>)
 8002ca6:	b510      	push	{r4, lr}
 8002ca8:	681a      	ldr	r2, [r3, #0]
 8002caa:	4b17      	ldr	r3, [pc, #92]	; (8002d08 <vTaskSwitchContext+0x64>)
 8002cac:	b112      	cbz	r2, 8002cb4 <vTaskSwitchContext+0x10>
 8002cae:	2201      	movs	r2, #1
 8002cb0:	601a      	str	r2, [r3, #0]
 8002cb2:	bd10      	pop	{r4, pc}
 8002cb4:	601a      	str	r2, [r3, #0]
 8002cb6:	4b15      	ldr	r3, [pc, #84]	; (8002d0c <vTaskSwitchContext+0x68>)
 8002cb8:	681b      	ldr	r3, [r3, #0]
 8002cba:	fab3 f383 	clz	r3, r3
 8002cbe:	2214      	movs	r2, #20
 8002cc0:	b2db      	uxtb	r3, r3
 8002cc2:	f1c3 031f 	rsb	r3, r3, #31
 8002cc6:	435a      	muls	r2, r3
 8002cc8:	4911      	ldr	r1, [pc, #68]	; (8002d10 <vTaskSwitchContext+0x6c>)
 8002cca:	588c      	ldr	r4, [r1, r2]
 8002ccc:	1888      	adds	r0, r1, r2
 8002cce:	b944      	cbnz	r4, 8002ce2 <vTaskSwitchContext+0x3e>
 8002cd0:	f04f 0350 	mov.w	r3, #80	; 0x50
 8002cd4:	f383 8811 	msr	BASEPRI, r3
 8002cd8:	f3bf 8f6f 	isb	sy
 8002cdc:	f3bf 8f4f 	dsb	sy
 8002ce0:	e7fe      	b.n	8002ce0 <vTaskSwitchContext+0x3c>
 8002ce2:	6844      	ldr	r4, [r0, #4]
 8002ce4:	3208      	adds	r2, #8
 8002ce6:	6864      	ldr	r4, [r4, #4]
 8002ce8:	440a      	add	r2, r1
 8002cea:	4294      	cmp	r4, r2
 8002cec:	bf08      	it	eq
 8002cee:	6862      	ldreq	r2, [r4, #4]
 8002cf0:	6044      	str	r4, [r0, #4]
 8002cf2:	bf08      	it	eq
 8002cf4:	6042      	streq	r2, [r0, #4]
 8002cf6:	2214      	movs	r2, #20
 8002cf8:	fb02 1303 	mla	r3, r2, r3, r1
 8002cfc:	685b      	ldr	r3, [r3, #4]
 8002cfe:	68da      	ldr	r2, [r3, #12]
 8002d00:	4b04      	ldr	r3, [pc, #16]	; (8002d14 <vTaskSwitchContext+0x70>)
 8002d02:	e7d5      	b.n	8002cb0 <vTaskSwitchContext+0xc>
 8002d04:	20000914 	.word	0x20000914
 8002d08:	20000994 	.word	0x20000994
 8002d0c:	2000091c 	.word	0x2000091c
 8002d10:	2000087c 	.word	0x2000087c
 8002d14:	20000870 	.word	0x20000870

08002d18 <prvTaskExitError>:
 8002d18:	2300      	movs	r3, #0
 8002d1a:	b082      	sub	sp, #8
 8002d1c:	9301      	str	r3, [sp, #4]
 8002d1e:	4b0d      	ldr	r3, [pc, #52]	; (8002d54 <prvTaskExitError+0x3c>)
 8002d20:	681b      	ldr	r3, [r3, #0]
 8002d22:	3301      	adds	r3, #1
 8002d24:	d008      	beq.n	8002d38 <prvTaskExitError+0x20>
 8002d26:	f04f 0350 	mov.w	r3, #80	; 0x50
 8002d2a:	f383 8811 	msr	BASEPRI, r3
 8002d2e:	f3bf 8f6f 	isb	sy
 8002d32:	f3bf 8f4f 	dsb	sy
 8002d36:	e7fe      	b.n	8002d36 <prvTaskExitError+0x1e>
 8002d38:	f04f 0350 	mov.w	r3, #80	; 0x50
 8002d3c:	f383 8811 	msr	BASEPRI, r3
 8002d40:	f3bf 8f6f 	isb	sy
 8002d44:	f3bf 8f4f 	dsb	sy
 8002d48:	9b01      	ldr	r3, [sp, #4]
 8002d4a:	2b00      	cmp	r3, #0
 8002d4c:	d0fc      	beq.n	8002d48 <prvTaskExitError+0x30>
 8002d4e:	b002      	add	sp, #8
 8002d50:	4770      	bx	lr
 8002d52:	bf00      	nop
 8002d54:	20000010 	.word	0x20000010

08002d58 <prvPortStartFirstTask>:
 8002d58:	4806      	ldr	r0, [pc, #24]	; (8002d74 <prvPortStartFirstTask+0x1c>)
 8002d5a:	6800      	ldr	r0, [r0, #0]
 8002d5c:	6800      	ldr	r0, [r0, #0]
 8002d5e:	f380 8808 	msr	MSP, r0
 8002d62:	b662      	cpsie	i
 8002d64:	b661      	cpsie	f
 8002d66:	f3bf 8f4f 	dsb	sy
 8002d6a:	f3bf 8f6f 	isb	sy
 8002d6e:	df00      	svc	0
 8002d70:	bf00      	nop
 8002d72:	0000      	.short	0x0000
 8002d74:	e000ed08 	.word	0xe000ed08

08002d78 <pxPortInitialiseStack>:
 8002d78:	f04f 7380 	mov.w	r3, #16777216	; 0x1000000
 8002d7c:	f840 3c04 	str.w	r3, [r0, #-4]
 8002d80:	4b05      	ldr	r3, [pc, #20]	; (8002d98 <pxPortInitialiseStack+0x20>)
 8002d82:	f021 0101 	bic.w	r1, r1, #1
 8002d86:	f840 1c08 	str.w	r1, [r0, #-8]
 8002d8a:	f840 3c0c 	str.w	r3, [r0, #-12]
 8002d8e:	f840 2c20 	str.w	r2, [r0, #-32]
 8002d92:	3840      	subs	r0, #64	; 0x40
 8002d94:	4770      	bx	lr
 8002d96:	bf00      	nop
 8002d98:	08002d19 	.word	0x08002d19
 8002d9c:	00000000 	.word	0x00000000

08002da0 <SVC_Handler>:
 8002da0:	4b07      	ldr	r3, [pc, #28]	; (8002dc0 <pxCurrentTCBConst2>)
 8002da2:	6819      	ldr	r1, [r3, #0]
 8002da4:	6808      	ldr	r0, [r1, #0]
 8002da6:	e8b0 0ff0 	ldmia.w	r0!, {r4, r5, r6, r7, r8, r9, sl, fp}
 8002daa:	f380 8809 	msr	PSP, r0
 8002dae:	f3bf 8f6f 	isb	sy
 8002db2:	f04f 0000 	mov.w	r0, #0
 8002db6:	f380 8811 	msr	BASEPRI, r0
 8002dba:	f04e 0e0d 	orr.w	lr, lr, #13
 8002dbe:	4770      	bx	lr

08002dc0 <pxCurrentTCBConst2>:
 8002dc0:	20000870 	.word	0x20000870

08002dc4 <vPortEnterCritical>:
 8002dc4:	f04f 0350 	mov.w	r3, #80	; 0x50
 8002dc8:	f383 8811 	msr	BASEPRI, r3
 8002dcc:	f3bf 8f6f 	isb	sy
 8002dd0:	f3bf 8f4f 	dsb	sy
 8002dd4:	4a0a      	ldr	r2, [pc, #40]	; (8002e00 <vPortEnterCritical+0x3c>)
 8002dd6:	6813      	ldr	r3, [r2, #0]
 8002dd8:	3301      	adds	r3, #1
 8002dda:	2b01      	cmp	r3, #1
 8002ddc:	6013      	str	r3, [r2, #0]
 8002dde:	d10d      	bne.n	8002dfc <vPortEnterCritical+0x38>
 8002de0:	4b08      	ldr	r3, [pc, #32]	; (8002e04 <vPortEnterCritical+0x40>)
 8002de2:	681b      	ldr	r3, [r3, #0]
 8002de4:	f013 0fff 	tst.w	r3, #255	; 0xff
 8002de8:	d008      	beq.n	8002dfc <vPortEnterCritical+0x38>
 8002dea:	f04f 0350 	mov.w	r3, #80	; 0x50
 8002dee:	f383 8811 	msr	BASEPRI, r3
 8002df2:	f3bf 8f6f 	isb	sy
 8002df6:	f3bf 8f4f 	dsb	sy
 8002dfa:	e7fe      	b.n	8002dfa <vPortEnterCritical+0x36>
 8002dfc:	4770      	bx	lr
 8002dfe:	bf00      	nop
 8002e00:	20000010 	.word	0x20000010
 8002e04:	e000ed04 	.word	0xe000ed04

08002e08 <vPortExitCritical>:
 8002e08:	4a08      	ldr	r2, [pc, #32]	; (8002e2c <vPortExitCritical+0x24>)
 8002e0a:	6813      	ldr	r3, [r2, #0]
 8002e0c:	b943      	cbnz	r3, 8002e20 <vPortExitCritical+0x18>
 8002e0e:	f04f 0350 	mov.w	r3, #80	; 0x50
 8002e12:	f383 8811 	msr	BASEPRI, r3
 8002e16:	f3bf 8f6f 	isb	sy
 8002e1a:	f3bf 8f4f 	dsb	sy
 8002e1e:	e7fe      	b.n	8002e1e <vPortExitCritical+0x16>
 8002e20:	3b01      	subs	r3, #1
 8002e22:	6013      	str	r3, [r2, #0]
 8002e24:	b90b      	cbnz	r3, 8002e2a <vPortExitCritical+0x22>
 8002e26:	f383 8811 	msr	BASEPRI, r3
 8002e2a:	4770      	bx	lr
 8002e2c:	20000010 	.word	0x20000010

08002e30 <PendSV_Handler>:
 8002e30:	f3ef 8009 	mrs	r0, PSP
 8002e34:	f3bf 8f6f 	isb	sy
 8002e38:	4b0d      	ldr	r3, [pc, #52]	; (8002e70 <pxCurrentTCBConst>)
 8002e3a:	681a      	ldr	r2, [r3, #0]
 8002e3c:	e920 0ff0 	stmdb	r0!, {r4, r5, r6, r7, r8, r9, sl, fp}
 8002e40:	6010      	str	r0, [r2, #0]
 8002e42:	e92d 4008 	stmdb	sp!, {r3, lr}
 8002e46:	f04f 0050 	mov.w	r0, #80	; 0x50
 8002e4a:	f380 8811 	msr	BASEPRI, r0
 8002e4e:	f7ff ff29 	bl	8002ca4 <vTaskSwitchContext>
 8002e52:	f04f 0000 	mov.w	r0, #0
 8002e56:	f380 8811 	msr	BASEPRI, r0
 8002e5a:	e8bd 4008 	ldmia.w	sp!, {r3, lr}
 8002e5e:	6819      	ldr	r1, [r3, #0]
 8002e60:	6808      	ldr	r0, [r1, #0]
 8002e62:	e8b0 0ff0 	ldmia.w	r0!, {r4, r5, r6, r7, r8, r9, sl, fp}
 8002e66:	f380 8809 	msr	PSP, r0
 8002e6a:	f3bf 8f6f 	isb	sy
 8002e6e:	4770      	bx	lr

08002e70 <pxCurrentTCBConst>:
 8002e70:	20000870 	.word	0x20000870

08002e74 <SysTick_Handler>:
 8002e74:	b508      	push	{r3, lr}
 8002e76:	f04f 0350 	mov.w	r3, #80	; 0x50
 8002e7a:	f383 8811 	msr	BASEPRI, r3
 8002e7e:	f3bf 8f6f 	isb	sy
 8002e82:	f3bf 8f4f 	dsb	sy
 8002e86:	f7ff fde1 	bl	8002a4c <xTaskIncrementTick>
 8002e8a:	b118      	cbz	r0, 8002e94 <SysTick_Handler+0x20>
 8002e8c:	f04f 5280 	mov.w	r2, #268435456	; 0x10000000
 8002e90:	4b02      	ldr	r3, [pc, #8]	; (8002e9c <SysTick_Handler+0x28>)
 8002e92:	601a      	str	r2, [r3, #0]
 8002e94:	2300      	movs	r3, #0
 8002e96:	f383 8811 	msr	BASEPRI, r3
 8002e9a:	bd08      	pop	{r3, pc}
 8002e9c:	e000ed04 	.word	0xe000ed04

08002ea0 <vPortSetupTimerInterrupt>:
 8002ea0:	2300      	movs	r3, #0
 8002ea2:	4a08      	ldr	r2, [pc, #32]	; (8002ec4 <vPortSetupTimerInterrupt+0x24>)
 8002ea4:	4908      	ldr	r1, [pc, #32]	; (8002ec8 <vPortSetupTimerInterrupt+0x28>)
 8002ea6:	6013      	str	r3, [r2, #0]
 8002ea8:	600b      	str	r3, [r1, #0]
 8002eaa:	f44f 717a 	mov.w	r1, #1000	; 0x3e8
 8002eae:	4b07      	ldr	r3, [pc, #28]	; (8002ecc <vPortSetupTimerInterrupt+0x2c>)
 8002eb0:	681b      	ldr	r3, [r3, #0]
 8002eb2:	fbb3 f3f1 	udiv	r3, r3, r1
 8002eb6:	4906      	ldr	r1, [pc, #24]	; (8002ed0 <vPortSetupTimerInterrupt+0x30>)
 8002eb8:	3b01      	subs	r3, #1
 8002eba:	600b      	str	r3, [r1, #0]
 8002ebc:	2307      	movs	r3, #7
 8002ebe:	6013      	str	r3, [r2, #0]
 8002ec0:	4770      	bx	lr
 8002ec2:	bf00      	nop
 8002ec4:	e000e010 	.word	0xe000e010
 8002ec8:	e000e018 	.word	0xe000e018
 8002ecc:	20000004 	.word	0x20000004
 8002ed0:	e000e014 	.word	0xe000e014

08002ed4 <xPortStartScheduler>:
 8002ed4:	b513      	push	{r0, r1, r4, lr}
 8002ed6:	4b27      	ldr	r3, [pc, #156]	; (8002f74 <xPortStartScheduler+0xa0>)
 8002ed8:	2100      	movs	r1, #0
 8002eda:	781a      	ldrb	r2, [r3, #0]
 8002edc:	b2d2      	uxtb	r2, r2
 8002ede:	9201      	str	r2, [sp, #4]
 8002ee0:	22ff      	movs	r2, #255	; 0xff
 8002ee2:	701a      	strb	r2, [r3, #0]
 8002ee4:	781b      	ldrb	r3, [r3, #0]
 8002ee6:	4a24      	ldr	r2, [pc, #144]	; (8002f78 <xPortStartScheduler+0xa4>)
 8002ee8:	b2db      	uxtb	r3, r3
 8002eea:	f88d 3003 	strb.w	r3, [sp, #3]
 8002eee:	f89d 3003 	ldrb.w	r3, [sp, #3]
 8002ef2:	f003 0350 	and.w	r3, r3, #80	; 0x50
 8002ef6:	7013      	strb	r3, [r2, #0]
 8002ef8:	2207      	movs	r2, #7
 8002efa:	4b20      	ldr	r3, [pc, #128]	; (8002f7c <xPortStartScheduler+0xa8>)
 8002efc:	601a      	str	r2, [r3, #0]
 8002efe:	f89d 0003 	ldrb.w	r0, [sp, #3]
 8002f02:	1e54      	subs	r4, r2, #1
 8002f04:	0600      	lsls	r0, r0, #24
 8002f06:	d40d      	bmi.n	8002f24 <xPortStartScheduler+0x50>
 8002f08:	b101      	cbz	r1, 8002f0c <xPortStartScheduler+0x38>
 8002f0a:	601a      	str	r2, [r3, #0]
 8002f0c:	681a      	ldr	r2, [r3, #0]
 8002f0e:	2a03      	cmp	r2, #3
 8002f10:	d011      	beq.n	8002f36 <xPortStartScheduler+0x62>
 8002f12:	f04f 0350 	mov.w	r3, #80	; 0x50
 8002f16:	f383 8811 	msr	BASEPRI, r3
 8002f1a:	f3bf 8f6f 	isb	sy
 8002f1e:	f3bf 8f4f 	dsb	sy
 8002f22:	e7fe      	b.n	8002f22 <xPortStartScheduler+0x4e>
 8002f24:	f89d 2003 	ldrb.w	r2, [sp, #3]
 8002f28:	2101      	movs	r1, #1
 8002f2a:	0052      	lsls	r2, r2, #1
 8002f2c:	b2d2      	uxtb	r2, r2
 8002f2e:	f88d 2003 	strb.w	r2, [sp, #3]
 8002f32:	4622      	mov	r2, r4
 8002f34:	e7e3      	b.n	8002efe <xPortStartScheduler+0x2a>
 8002f36:	2400      	movs	r4, #0
 8002f38:	0212      	lsls	r2, r2, #8
 8002f3a:	f402 62e0 	and.w	r2, r2, #1792	; 0x700
 8002f3e:	601a      	str	r2, [r3, #0]
 8002f40:	9b01      	ldr	r3, [sp, #4]
 8002f42:	4a0c      	ldr	r2, [pc, #48]	; (8002f74 <xPortStartScheduler+0xa0>)
 8002f44:	b2db      	uxtb	r3, r3
 8002f46:	7013      	strb	r3, [r2, #0]
 8002f48:	4b0d      	ldr	r3, [pc, #52]	; (8002f80 <xPortStartScheduler+0xac>)
 8002f4a:	681a      	ldr	r2, [r3, #0]
 8002f4c:	f442 0270 	orr.w	r2, r2, #15728640	; 0xf00000
 8002f50:	601a      	str	r2, [r3, #0]
 8002f52:	681a      	ldr	r2, [r3, #0]
 8002f54:	f042 4270 	orr.w	r2, r2, #4026531840	; 0xf0000000
 8002f58:	601a      	str	r2, [r3, #0]
 8002f5a:	f7ff ffa1 	bl	8002ea0 <vPortSetupTimerInterrupt>
 8002f5e:	4b09      	ldr	r3, [pc, #36]	; (8002f84 <xPortStartScheduler+0xb0>)
 8002f60:	601c      	str	r4, [r3, #0]
 8002f62:	f7ff fef9 	bl	8002d58 <prvPortStartFirstTask>
 8002f66:	f7ff fe9d 	bl	8002ca4 <vTaskSwitchContext>
 8002f6a:	f7ff fed5 	bl	8002d18 <prvTaskExitError>
 8002f6e:	4620      	mov	r0, r4
 8002f70:	b002      	add	sp, #8
 8002f72:	bd10      	pop	{r4, pc}
 8002f74:	e000e400 	.word	0xe000e400
 8002f78:	20000998 	.word	0x20000998
 8002f7c:	2000099c 	.word	0x2000099c
 8002f80:	e000ed20 	.word	0xe000ed20
 8002f84:	20000010 	.word	0x20000010

08002f88 <prvInsertBlockIntoFreeList>:
 8002f88:	b510      	push	{r4, lr}
 8002f8a:	4b0f      	ldr	r3, [pc, #60]	; (8002fc8 <prvInsertBlockIntoFreeList+0x40>)
 8002f8c:	681a      	ldr	r2, [r3, #0]
 8002f8e:	4282      	cmp	r2, r0
 8002f90:	d318      	bcc.n	8002fc4 <prvInsertBlockIntoFreeList+0x3c>
 8002f92:	685c      	ldr	r4, [r3, #4]
 8002f94:	1919      	adds	r1, r3, r4
 8002f96:	4288      	cmp	r0, r1
 8002f98:	bf01      	itttt	eq
 8002f9a:	6841      	ldreq	r1, [r0, #4]
 8002f9c:	4618      	moveq	r0, r3
 8002f9e:	1909      	addeq	r1, r1, r4
 8002fa0:	6059      	streq	r1, [r3, #4]
 8002fa2:	6844      	ldr	r4, [r0, #4]
 8002fa4:	1901      	adds	r1, r0, r4
 8002fa6:	428a      	cmp	r2, r1
 8002fa8:	d107      	bne.n	8002fba <prvInsertBlockIntoFreeList+0x32>
 8002faa:	4908      	ldr	r1, [pc, #32]	; (8002fcc <prvInsertBlockIntoFreeList+0x44>)
 8002fac:	6809      	ldr	r1, [r1, #0]
 8002fae:	428a      	cmp	r2, r1
 8002fb0:	bf1f      	itttt	ne
 8002fb2:	6851      	ldrne	r1, [r2, #4]
 8002fb4:	6812      	ldrne	r2, [r2, #0]
 8002fb6:	1909      	addne	r1, r1, r4
 8002fb8:	6041      	strne	r1, [r0, #4]
 8002fba:	4298      	cmp	r0, r3
 8002fbc:	6002      	str	r2, [r0, #0]
 8002fbe:	bf18      	it	ne
 8002fc0:	6018      	strne	r0, [r3, #0]
 8002fc2:	bd10      	pop	{r4, pc}
 8002fc4:	4613      	mov	r3, r2
 8002fc6:	e7e1      	b.n	8002f8c <prvInsertBlockIntoFreeList+0x4>
 8002fc8:	20001db0 	.word	0x20001db0
 8002fcc:	200009a0 	.word	0x200009a0

08002fd0 <pvPortMalloc>:
 8002fd0:	e92d 41f0 	stmdb	sp!, {r4, r5, r6, r7, r8, lr}
 8002fd4:	4604      	mov	r4, r0
 8002fd6:	f7ff fd31 	bl	8002a3c <vTaskSuspendAll>
 8002fda:	493d      	ldr	r1, [pc, #244]	; (80030d0 <pvPortMalloc+0x100>)
 8002fdc:	4d3d      	ldr	r5, [pc, #244]	; (80030d4 <pvPortMalloc+0x104>)
 8002fde:	680b      	ldr	r3, [r1, #0]
 8002fe0:	b9fb      	cbnz	r3, 8003022 <pvPortMalloc+0x52>
 8002fe2:	4a3d      	ldr	r2, [pc, #244]	; (80030d8 <pvPortMalloc+0x108>)
 8002fe4:	2000      	movs	r0, #0
 8002fe6:	0756      	lsls	r6, r2, #29
 8002fe8:	f502 53a0 	add.w	r3, r2, #5120	; 0x1400
 8002fec:	bf0f      	iteee	eq
 8002fee:	f44f 53a0 	moveq.w	r3, #5120	; 0x1400
 8002ff2:	3207      	addne	r2, #7
 8002ff4:	f022 0207 	bicne.w	r2, r2, #7
 8002ff8:	1a9b      	subne	r3, r3, r2
 8002ffa:	4413      	add	r3, r2
 8002ffc:	4e37      	ldr	r6, [pc, #220]	; (80030dc <pvPortMalloc+0x10c>)
 8002ffe:	3b08      	subs	r3, #8
 8003000:	f023 0307 	bic.w	r3, r3, #7
 8003004:	6070      	str	r0, [r6, #4]
 8003006:	6032      	str	r2, [r6, #0]
 8003008:	e9c3 0000 	strd	r0, r0, [r3]
 800300c:	1a98      	subs	r0, r3, r2
 800300e:	600b      	str	r3, [r1, #0]
 8003010:	e9c2 3000 	strd	r3, r0, [r2]
 8003014:	4b32      	ldr	r3, [pc, #200]	; (80030e0 <pvPortMalloc+0x110>)
 8003016:	6018      	str	r0, [r3, #0]
 8003018:	4b32      	ldr	r3, [pc, #200]	; (80030e4 <pvPortMalloc+0x114>)
 800301a:	6018      	str	r0, [r3, #0]
 800301c:	f04f 4300 	mov.w	r3, #2147483648	; 0x80000000
 8003020:	602b      	str	r3, [r5, #0]
 8003022:	682f      	ldr	r7, [r5, #0]
 8003024:	4227      	tst	r7, r4
 8003026:	d14d      	bne.n	80030c4 <pvPortMalloc+0xf4>
 8003028:	2c00      	cmp	r4, #0
 800302a:	d03e      	beq.n	80030aa <pvPortMalloc+0xda>
 800302c:	f104 0308 	add.w	r3, r4, #8
 8003030:	0758      	lsls	r0, r3, #29
 8003032:	bf1c      	itt	ne
 8003034:	f023 0307 	bicne.w	r3, r3, #7
 8003038:	3308      	addne	r3, #8
 800303a:	2b00      	cmp	r3, #0
 800303c:	d042      	beq.n	80030c4 <pvPortMalloc+0xf4>
 800303e:	4a29      	ldr	r2, [pc, #164]	; (80030e4 <pvPortMalloc+0x114>)
 8003040:	6816      	ldr	r6, [r2, #0]
 8003042:	4690      	mov	r8, r2
 8003044:	429e      	cmp	r6, r3
 8003046:	d33d      	bcc.n	80030c4 <pvPortMalloc+0xf4>
 8003048:	4a24      	ldr	r2, [pc, #144]	; (80030dc <pvPortMalloc+0x10c>)
 800304a:	6815      	ldr	r5, [r2, #0]
 800304c:	6868      	ldr	r0, [r5, #4]
 800304e:	4298      	cmp	r0, r3
 8003050:	d201      	bcs.n	8003056 <pvPortMalloc+0x86>
 8003052:	682c      	ldr	r4, [r5, #0]
 8003054:	b9a4      	cbnz	r4, 8003080 <pvPortMalloc+0xb0>
 8003056:	6809      	ldr	r1, [r1, #0]
 8003058:	42a9      	cmp	r1, r5
 800305a:	d033      	beq.n	80030c4 <pvPortMalloc+0xf4>
 800305c:	6829      	ldr	r1, [r5, #0]
 800305e:	6814      	ldr	r4, [r2, #0]
 8003060:	6011      	str	r1, [r2, #0]
 8003062:	1ac2      	subs	r2, r0, r3
 8003064:	2a10      	cmp	r2, #16
 8003066:	d912      	bls.n	800308e <pvPortMalloc+0xbe>
 8003068:	18e8      	adds	r0, r5, r3
 800306a:	0741      	lsls	r1, r0, #29
 800306c:	d00b      	beq.n	8003086 <pvPortMalloc+0xb6>
 800306e:	f04f 0350 	mov.w	r3, #80	; 0x50
 8003072:	f383 8811 	msr	BASEPRI, r3
 8003076:	f3bf 8f6f 	isb	sy
 800307a:	f3bf 8f4f 	dsb	sy
 800307e:	e7fe      	b.n	800307e <pvPortMalloc+0xae>
 8003080:	462a      	mov	r2, r5
 8003082:	4625      	mov	r5, r4
 8003084:	e7e2      	b.n	800304c <pvPortMalloc+0x7c>
 8003086:	6042      	str	r2, [r0, #4]
 8003088:	606b      	str	r3, [r5, #4]
 800308a:	f7ff ff7d 	bl	8002f88 <prvInsertBlockIntoFreeList>
 800308e:	686b      	ldr	r3, [r5, #4]
 8003090:	4913      	ldr	r1, [pc, #76]	; (80030e0 <pvPortMalloc+0x110>)
 8003092:	1af6      	subs	r6, r6, r3
 8003094:	431f      	orrs	r7, r3
 8003096:	2300      	movs	r3, #0
 8003098:	6808      	ldr	r0, [r1, #0]
 800309a:	f8c8 6000 	str.w	r6, [r8]
 800309e:	4286      	cmp	r6, r0
 80030a0:	bf38      	it	cc
 80030a2:	600e      	strcc	r6, [r1, #0]
 80030a4:	3408      	adds	r4, #8
 80030a6:	606f      	str	r7, [r5, #4]
 80030a8:	602b      	str	r3, [r5, #0]
 80030aa:	f7ff fd61 	bl	8002b70 <xTaskResumeAll>
 80030ae:	0763      	lsls	r3, r4, #29
 80030b0:	d00a      	beq.n	80030c8 <pvPortMalloc+0xf8>
 80030b2:	f04f 0350 	mov.w	r3, #80	; 0x50
 80030b6:	f383 8811 	msr	BASEPRI, r3
 80030ba:	f3bf 8f6f 	isb	sy
 80030be:	f3bf 8f4f 	dsb	sy
 80030c2:	e7fe      	b.n	80030c2 <pvPortMalloc+0xf2>
 80030c4:	2400      	movs	r4, #0
 80030c6:	e7f0      	b.n	80030aa <pvPortMalloc+0xda>
 80030c8:	4620      	mov	r0, r4
 80030ca:	e8bd 81f0 	ldmia.w	sp!, {r4, r5, r6, r7, r8, pc}
 80030ce:	bf00      	nop
 80030d0:	200009a0 	.word	0x200009a0
 80030d4:	20001da4 	.word	0x20001da4
 80030d8:	200009a4 	.word	0x200009a4
 80030dc:	20001db0 	.word	0x20001db0
 80030e0:	20001dac 	.word	0x20001dac
 80030e4:	20001da8 	.word	0x20001da8

080030e8 <vPortFree>:
 80030e8:	b510      	push	{r4, lr}
 80030ea:	4604      	mov	r4, r0
 80030ec:	b370      	cbz	r0, 800314c <vPortFree+0x64>
 80030ee:	4a18      	ldr	r2, [pc, #96]	; (8003150 <vPortFree+0x68>)
 80030f0:	f850 3c04 	ldr.w	r3, [r0, #-4]
 80030f4:	6812      	ldr	r2, [r2, #0]
 80030f6:	4213      	tst	r3, r2
 80030f8:	d108      	bne.n	800310c <vPortFree+0x24>
 80030fa:	f04f 0350 	mov.w	r3, #80	; 0x50
 80030fe:	f383 8811 	msr	BASEPRI, r3
 8003102:	f3bf 8f6f 	isb	sy
 8003106:	f3bf 8f4f 	dsb	sy
 800310a:	e7fe      	b.n	800310a <vPortFree+0x22>
 800310c:	f850 1c08 	ldr.w	r1, [r0, #-8]
 8003110:	b141      	cbz	r1, 8003124 <vPortFree+0x3c>
 8003112:	f04f 0350 	mov.w	r3, #80	; 0x50
 8003116:	f383 8811 	msr	BASEPRI, r3
 800311a:	f3bf 8f6f 	isb	sy
 800311e:	f3bf 8f4f 	dsb	sy
 8003122:	e7fe      	b.n	8003122 <vPortFree+0x3a>
 8003124:	ea23 0302 	bic.w	r3, r3, r2
 8003128:	f840 3c04 	str.w	r3, [r0, #-4]
 800312c:	f7ff fc86 	bl	8002a3c <vTaskSuspendAll>
 8003130:	4a08      	ldr	r2, [pc, #32]	; (8003154 <vPortFree+0x6c>)
 8003132:	f854 3c04 	ldr.w	r3, [r4, #-4]
 8003136:	6811      	ldr	r1, [r2, #0]
 8003138:	f1a4 0008 	sub.w	r0, r4, #8
 800313c:	440b      	add	r3, r1
 800313e:	6013      	str	r3, [r2, #0]
 8003140:	f7ff ff22 	bl	8002f88 <prvInsertBlockIntoFreeList>
 8003144:	e8bd 4010 	ldmia.w	sp!, {r4, lr}
 8003148:	f7ff bd12 	b.w	8002b70 <xTaskResumeAll>
 800314c:	bd10      	pop	{r4, pc}
 800314e:	bf00      	nop
 8003150:	20001da4 	.word	0x20001da4
 8003154:	20001da8 	.word	0x20001da8

08003158 <__errno>:
 8003158:	4b01      	ldr	r3, [pc, #4]	; (8003160 <__errno+0x8>)
 800315a:	6818      	ldr	r0, [r3, #0]
 800315c:	4770      	bx	lr
 800315e:	bf00      	nop
 8003160:	20000014 	.word	0x20000014

08003164 <__libc_init_array>:
 8003164:	b570      	push	{r4, r5, r6, lr}
 8003166:	2500      	movs	r5, #0
 8003168:	4e0c      	ldr	r6, [pc, #48]	; (800319c <__libc_init_array+0x38>)
 800316a:	4c0d      	ldr	r4, [pc, #52]	; (80031a0 <__libc_init_array+0x3c>)
 800316c:	1ba4      	subs	r4, r4, r6
 800316e:	10a4      	asrs	r4, r4, #2
 8003170:	42a5      	cmp	r5, r4
 8003172:	d109      	bne.n	8003188 <__libc_init_array+0x24>
 8003174:	f001 f9a2 	bl	80044bc <_init>
 8003178:	2500      	movs	r5, #0
 800317a:	4e0a      	ldr	r6, [pc, #40]	; (80031a4 <__libc_init_array+0x40>)
 800317c:	4c0a      	ldr	r4, [pc, #40]	; (80031a8 <__libc_init_array+0x44>)
 800317e:	1ba4      	subs	r4, r4, r6
 8003180:	10a4      	asrs	r4, r4, #2
 8003182:	42a5      	cmp	r5, r4
 8003184:	d105      	bne.n	8003192 <__libc_init_array+0x2e>
 8003186:	bd70      	pop	{r4, r5, r6, pc}
 8003188:	f856 3025 	ldr.w	r3, [r6, r5, lsl #2]
 800318c:	4798      	blx	r3
 800318e:	3501      	adds	r5, #1
 8003190:	e7ee      	b.n	8003170 <__libc_init_array+0xc>
 8003192:	f856 3025 	ldr.w	r3, [r6, r5, lsl #2]
 8003196:	4798      	blx	r3
 8003198:	3501      	adds	r5, #1
 800319a:	e7f2      	b.n	8003182 <__libc_init_array+0x1e>
 800319c:	08004a5c 	.word	0x08004a5c
 80031a0:	08004a5c 	.word	0x08004a5c
 80031a4:	08004a5c 	.word	0x08004a5c
 80031a8:	08004a60 	.word	0x08004a60

080031ac <memcpy>:
 80031ac:	b510      	push	{r4, lr}
 80031ae:	1e43      	subs	r3, r0, #1
 80031b0:	440a      	add	r2, r1
 80031b2:	4291      	cmp	r1, r2
 80031b4:	d100      	bne.n	80031b8 <memcpy+0xc>
 80031b6:	bd10      	pop	{r4, pc}
 80031b8:	f811 4b01 	ldrb.w	r4, [r1], #1
 80031bc:	f803 4f01 	strb.w	r4, [r3, #1]!
 80031c0:	e7f7      	b.n	80031b2 <memcpy+0x6>

080031c2 <memset>:
 80031c2:	4603      	mov	r3, r0
 80031c4:	4402      	add	r2, r0
 80031c6:	4293      	cmp	r3, r2
 80031c8:	d100      	bne.n	80031cc <memset+0xa>
 80031ca:	4770      	bx	lr
 80031cc:	f803 1b01 	strb.w	r1, [r3], #1
 80031d0:	e7f9      	b.n	80031c6 <memset+0x4>
	...

080031d4 <siprintf>:
 80031d4:	b40e      	push	{r1, r2, r3}
 80031d6:	f06f 4100 	mvn.w	r1, #2147483648	; 0x80000000
 80031da:	b500      	push	{lr}
 80031dc:	b09c      	sub	sp, #112	; 0x70
 80031de:	ab1d      	add	r3, sp, #116	; 0x74
 80031e0:	9002      	str	r0, [sp, #8]
 80031e2:	9006      	str	r0, [sp, #24]
 80031e4:	9107      	str	r1, [sp, #28]
 80031e6:	9104      	str	r1, [sp, #16]
 80031e8:	4808      	ldr	r0, [pc, #32]	; (800320c <siprintf+0x38>)
 80031ea:	4909      	ldr	r1, [pc, #36]	; (8003210 <siprintf+0x3c>)
 80031ec:	f853 2b04 	ldr.w	r2, [r3], #4
 80031f0:	9105      	str	r1, [sp, #20]
 80031f2:	6800      	ldr	r0, [r0, #0]
 80031f4:	a902      	add	r1, sp, #8
 80031f6:	9301      	str	r3, [sp, #4]
 80031f8:	f000 f9c4 	bl	8003584 <_svfiprintf_r>
 80031fc:	2200      	movs	r2, #0
 80031fe:	9b02      	ldr	r3, [sp, #8]
 8003200:	701a      	strb	r2, [r3, #0]
 8003202:	b01c      	add	sp, #112	; 0x70
 8003204:	f85d eb04 	ldr.w	lr, [sp], #4
 8003208:	b003      	add	sp, #12
 800320a:	4770      	bx	lr
 800320c:	20000014 	.word	0x20000014
 8003210:	ffff0208 	.word	0xffff0208

08003214 <siscanf>:
 8003214:	b40e      	push	{r1, r2, r3}
 8003216:	f44f 7201 	mov.w	r2, #516	; 0x204
 800321a:	b530      	push	{r4, r5, lr}
 800321c:	b09c      	sub	sp, #112	; 0x70
 800321e:	ac1f      	add	r4, sp, #124	; 0x7c
 8003220:	f854 5b04 	ldr.w	r5, [r4], #4
 8003224:	f8ad 2014 	strh.w	r2, [sp, #20]
 8003228:	9002      	str	r0, [sp, #8]
 800322a:	9006      	str	r0, [sp, #24]
 800322c:	f7fc ff9a 	bl	8000164 <strlen>
 8003230:	4b0b      	ldr	r3, [pc, #44]	; (8003260 <siscanf+0x4c>)
 8003232:	9003      	str	r0, [sp, #12]
 8003234:	930b      	str	r3, [sp, #44]	; 0x2c
 8003236:	2300      	movs	r3, #0
 8003238:	930f      	str	r3, [sp, #60]	; 0x3c
 800323a:	9314      	str	r3, [sp, #80]	; 0x50
 800323c:	f64f 73ff 	movw	r3, #65535	; 0xffff
 8003240:	9007      	str	r0, [sp, #28]
 8003242:	4808      	ldr	r0, [pc, #32]	; (8003264 <siscanf+0x50>)
 8003244:	f8ad 3016 	strh.w	r3, [sp, #22]
 8003248:	462a      	mov	r2, r5
 800324a:	4623      	mov	r3, r4
 800324c:	a902      	add	r1, sp, #8
 800324e:	6800      	ldr	r0, [r0, #0]
 8003250:	9401      	str	r4, [sp, #4]
 8003252:	f000 fae9 	bl	8003828 <__ssvfiscanf_r>
 8003256:	b01c      	add	sp, #112	; 0x70
 8003258:	e8bd 4030 	ldmia.w	sp!, {r4, r5, lr}
 800325c:	b003      	add	sp, #12
 800325e:	4770      	bx	lr
 8003260:	08003269 	.word	0x08003269
 8003264:	20000014 	.word	0x20000014

08003268 <__seofread>:
 8003268:	2000      	movs	r0, #0
 800326a:	4770      	bx	lr

0800326c <strchr>:
 800326c:	b2c9      	uxtb	r1, r1
 800326e:	4603      	mov	r3, r0
 8003270:	f810 2b01 	ldrb.w	r2, [r0], #1
 8003274:	b11a      	cbz	r2, 800327e <strchr+0x12>
 8003276:	428a      	cmp	r2, r1
 8003278:	d1f9      	bne.n	800326e <strchr+0x2>
 800327a:	4618      	mov	r0, r3
 800327c:	4770      	bx	lr
 800327e:	2900      	cmp	r1, #0
 8003280:	bf18      	it	ne
 8003282:	2300      	movne	r3, #0
 8003284:	e7f9      	b.n	800327a <strchr+0xe>

08003286 <strcpy>:
 8003286:	4603      	mov	r3, r0
 8003288:	f811 2b01 	ldrb.w	r2, [r1], #1
 800328c:	f803 2b01 	strb.w	r2, [r3], #1
 8003290:	2a00      	cmp	r2, #0
 8003292:	d1f9      	bne.n	8003288 <strcpy+0x2>
 8003294:	4770      	bx	lr

08003296 <strstr>:
 8003296:	b5f0      	push	{r4, r5, r6, r7, lr}
 8003298:	7803      	ldrb	r3, [r0, #0]
 800329a:	b17b      	cbz	r3, 80032bc <strstr+0x26>
 800329c:	4604      	mov	r4, r0
 800329e:	7823      	ldrb	r3, [r4, #0]
 80032a0:	4620      	mov	r0, r4
 80032a2:	1c66      	adds	r6, r4, #1
 80032a4:	b17b      	cbz	r3, 80032c6 <strstr+0x30>
 80032a6:	1e4a      	subs	r2, r1, #1
 80032a8:	1e63      	subs	r3, r4, #1
 80032aa:	f812 5f01 	ldrb.w	r5, [r2, #1]!
 80032ae:	b14d      	cbz	r5, 80032c4 <strstr+0x2e>
 80032b0:	f813 7f01 	ldrb.w	r7, [r3, #1]!
 80032b4:	4634      	mov	r4, r6
 80032b6:	42af      	cmp	r7, r5
 80032b8:	d0f7      	beq.n	80032aa <strstr+0x14>
 80032ba:	e7f0      	b.n	800329e <strstr+0x8>
 80032bc:	780b      	ldrb	r3, [r1, #0]
 80032be:	2b00      	cmp	r3, #0
 80032c0:	bf18      	it	ne
 80032c2:	2000      	movne	r0, #0
 80032c4:	bdf0      	pop	{r4, r5, r6, r7, pc}
 80032c6:	4618      	mov	r0, r3
 80032c8:	e7fc      	b.n	80032c4 <strstr+0x2e>
	...

080032cc <strtok>:
 80032cc:	4b13      	ldr	r3, [pc, #76]	; (800331c <strtok+0x50>)
 80032ce:	e92d 41f0 	stmdb	sp!, {r4, r5, r6, r7, r8, lr}
 80032d2:	681d      	ldr	r5, [r3, #0]
 80032d4:	4606      	mov	r6, r0
 80032d6:	6dac      	ldr	r4, [r5, #88]	; 0x58
 80032d8:	460f      	mov	r7, r1
 80032da:	b9b4      	cbnz	r4, 800330a <strtok+0x3e>
 80032dc:	2050      	movs	r0, #80	; 0x50
 80032de:	f000 f849 	bl	8003374 <malloc>
 80032e2:	65a8      	str	r0, [r5, #88]	; 0x58
 80032e4:	e9c0 4400 	strd	r4, r4, [r0]
 80032e8:	e9c0 4402 	strd	r4, r4, [r0, #8]
 80032ec:	e9c0 4404 	strd	r4, r4, [r0, #16]
 80032f0:	e9c0 440a 	strd	r4, r4, [r0, #40]	; 0x28
 80032f4:	e9c0 440c 	strd	r4, r4, [r0, #48]	; 0x30
 80032f8:	e9c0 440e 	strd	r4, r4, [r0, #56]	; 0x38
 80032fc:	e9c0 4410 	strd	r4, r4, [r0, #64]	; 0x40
 8003300:	e9c0 4412 	strd	r4, r4, [r0, #72]	; 0x48
 8003304:	6184      	str	r4, [r0, #24]
 8003306:	7704      	strb	r4, [r0, #28]
 8003308:	6244      	str	r4, [r0, #36]	; 0x24
 800330a:	6daa      	ldr	r2, [r5, #88]	; 0x58
 800330c:	4639      	mov	r1, r7
 800330e:	4630      	mov	r0, r6
 8003310:	e8bd 41f0 	ldmia.w	sp!, {r4, r5, r6, r7, r8, lr}
 8003314:	2301      	movs	r3, #1
 8003316:	f000 b803 	b.w	8003320 <__strtok_r>
 800331a:	bf00      	nop
 800331c:	20000014 	.word	0x20000014

08003320 <__strtok_r>:
 8003320:	b5f0      	push	{r4, r5, r6, r7, lr}
 8003322:	b918      	cbnz	r0, 800332c <__strtok_r+0xc>
 8003324:	6810      	ldr	r0, [r2, #0]
 8003326:	b908      	cbnz	r0, 800332c <__strtok_r+0xc>
 8003328:	bdf0      	pop	{r4, r5, r6, r7, pc}
 800332a:	4620      	mov	r0, r4
 800332c:	4604      	mov	r4, r0
 800332e:	460f      	mov	r7, r1
 8003330:	f814 5b01 	ldrb.w	r5, [r4], #1
 8003334:	f817 6b01 	ldrb.w	r6, [r7], #1
 8003338:	b91e      	cbnz	r6, 8003342 <__strtok_r+0x22>
 800333a:	b96d      	cbnz	r5, 8003358 <__strtok_r+0x38>
 800333c:	6015      	str	r5, [r2, #0]
 800333e:	4628      	mov	r0, r5
 8003340:	e7f2      	b.n	8003328 <__strtok_r+0x8>
 8003342:	42b5      	cmp	r5, r6
 8003344:	d1f6      	bne.n	8003334 <__strtok_r+0x14>
 8003346:	2b00      	cmp	r3, #0
 8003348:	d1ef      	bne.n	800332a <__strtok_r+0xa>
 800334a:	6014      	str	r4, [r2, #0]
 800334c:	7003      	strb	r3, [r0, #0]
 800334e:	e7eb      	b.n	8003328 <__strtok_r+0x8>
 8003350:	462b      	mov	r3, r5
 8003352:	e00d      	b.n	8003370 <__strtok_r+0x50>
 8003354:	b926      	cbnz	r6, 8003360 <__strtok_r+0x40>
 8003356:	461c      	mov	r4, r3
 8003358:	4623      	mov	r3, r4
 800335a:	460f      	mov	r7, r1
 800335c:	f813 5b01 	ldrb.w	r5, [r3], #1
 8003360:	f817 6b01 	ldrb.w	r6, [r7], #1
 8003364:	42b5      	cmp	r5, r6
 8003366:	d1f5      	bne.n	8003354 <__strtok_r+0x34>
 8003368:	2d00      	cmp	r5, #0
 800336a:	d0f1      	beq.n	8003350 <__strtok_r+0x30>
 800336c:	2100      	movs	r1, #0
 800336e:	7021      	strb	r1, [r4, #0]
 8003370:	6013      	str	r3, [r2, #0]
 8003372:	e7d9      	b.n	8003328 <__strtok_r+0x8>

08003374 <malloc>:
 8003374:	4b02      	ldr	r3, [pc, #8]	; (8003380 <malloc+0xc>)
 8003376:	4601      	mov	r1, r0
 8003378:	6818      	ldr	r0, [r3, #0]
 800337a:	f000 b84f 	b.w	800341c <_malloc_r>
 800337e:	bf00      	nop
 8003380:	20000014 	.word	0x20000014

08003384 <_free_r>:
 8003384:	b538      	push	{r3, r4, r5, lr}
 8003386:	4605      	mov	r5, r0
 8003388:	2900      	cmp	r1, #0
 800338a:	d043      	beq.n	8003414 <_free_r+0x90>
 800338c:	f851 3c04 	ldr.w	r3, [r1, #-4]
 8003390:	1f0c      	subs	r4, r1, #4
 8003392:	2b00      	cmp	r3, #0
 8003394:	bfb8      	it	lt
 8003396:	18e4      	addlt	r4, r4, r3
 8003398:	f001 f853 	bl	8004442 <__malloc_lock>
 800339c:	4a1e      	ldr	r2, [pc, #120]	; (8003418 <_free_r+0x94>)
 800339e:	6813      	ldr	r3, [r2, #0]
 80033a0:	4610      	mov	r0, r2
 80033a2:	b933      	cbnz	r3, 80033b2 <_free_r+0x2e>
 80033a4:	6063      	str	r3, [r4, #4]
 80033a6:	6014      	str	r4, [r2, #0]
 80033a8:	4628      	mov	r0, r5
 80033aa:	e8bd 4038 	ldmia.w	sp!, {r3, r4, r5, lr}
 80033ae:	f001 b849 	b.w	8004444 <__malloc_unlock>
 80033b2:	42a3      	cmp	r3, r4
 80033b4:	d90b      	bls.n	80033ce <_free_r+0x4a>
 80033b6:	6821      	ldr	r1, [r4, #0]
 80033b8:	1862      	adds	r2, r4, r1
 80033ba:	4293      	cmp	r3, r2
 80033bc:	bf01      	itttt	eq
 80033be:	681a      	ldreq	r2, [r3, #0]
 80033c0:	685b      	ldreq	r3, [r3, #4]
 80033c2:	1852      	addeq	r2, r2, r1
 80033c4:	6022      	streq	r2, [r4, #0]
 80033c6:	6063      	str	r3, [r4, #4]
 80033c8:	6004      	str	r4, [r0, #0]
 80033ca:	e7ed      	b.n	80033a8 <_free_r+0x24>
 80033cc:	4613      	mov	r3, r2
 80033ce:	685a      	ldr	r2, [r3, #4]
 80033d0:	b10a      	cbz	r2, 80033d6 <_free_r+0x52>
 80033d2:	42a2      	cmp	r2, r4
 80033d4:	d9fa      	bls.n	80033cc <_free_r+0x48>
 80033d6:	6819      	ldr	r1, [r3, #0]
 80033d8:	1858      	adds	r0, r3, r1
 80033da:	42a0      	cmp	r0, r4
 80033dc:	d10b      	bne.n	80033f6 <_free_r+0x72>
 80033de:	6820      	ldr	r0, [r4, #0]
 80033e0:	4401      	add	r1, r0
 80033e2:	1858      	adds	r0, r3, r1
 80033e4:	4282      	cmp	r2, r0
 80033e6:	6019      	str	r1, [r3, #0]
 80033e8:	d1de      	bne.n	80033a8 <_free_r+0x24>
 80033ea:	6810      	ldr	r0, [r2, #0]
 80033ec:	6852      	ldr	r2, [r2, #4]
 80033ee:	4401      	add	r1, r0
 80033f0:	6019      	str	r1, [r3, #0]
 80033f2:	605a      	str	r2, [r3, #4]
 80033f4:	e7d8      	b.n	80033a8 <_free_r+0x24>
 80033f6:	d902      	bls.n	80033fe <_free_r+0x7a>
 80033f8:	230c      	movs	r3, #12
 80033fa:	602b      	str	r3, [r5, #0]
 80033fc:	e7d4      	b.n	80033a8 <_free_r+0x24>
 80033fe:	6820      	ldr	r0, [r4, #0]
 8003400:	1821      	adds	r1, r4, r0
 8003402:	428a      	cmp	r2, r1
 8003404:	bf01      	itttt	eq
 8003406:	6811      	ldreq	r1, [r2, #0]
 8003408:	6852      	ldreq	r2, [r2, #4]
 800340a:	1809      	addeq	r1, r1, r0
 800340c:	6021      	streq	r1, [r4, #0]
 800340e:	6062      	str	r2, [r4, #4]
 8003410:	605c      	str	r4, [r3, #4]
 8003412:	e7c9      	b.n	80033a8 <_free_r+0x24>
 8003414:	bd38      	pop	{r3, r4, r5, pc}
 8003416:	bf00      	nop
 8003418:	20001db8 	.word	0x20001db8

0800341c <_malloc_r>:
 800341c:	b570      	push	{r4, r5, r6, lr}
 800341e:	1ccd      	adds	r5, r1, #3
 8003420:	f025 0503 	bic.w	r5, r5, #3
 8003424:	3508      	adds	r5, #8
 8003426:	2d0c      	cmp	r5, #12
 8003428:	bf38      	it	cc
 800342a:	250c      	movcc	r5, #12
 800342c:	2d00      	cmp	r5, #0
 800342e:	4606      	mov	r6, r0
 8003430:	db01      	blt.n	8003436 <_malloc_r+0x1a>
 8003432:	42a9      	cmp	r1, r5
 8003434:	d903      	bls.n	800343e <_malloc_r+0x22>
 8003436:	230c      	movs	r3, #12
 8003438:	6033      	str	r3, [r6, #0]
 800343a:	2000      	movs	r0, #0
 800343c:	bd70      	pop	{r4, r5, r6, pc}
 800343e:	f001 f800 	bl	8004442 <__malloc_lock>
 8003442:	4a21      	ldr	r2, [pc, #132]	; (80034c8 <_malloc_r+0xac>)
 8003444:	6814      	ldr	r4, [r2, #0]
 8003446:	4621      	mov	r1, r4
 8003448:	b991      	cbnz	r1, 8003470 <_malloc_r+0x54>
 800344a:	4c20      	ldr	r4, [pc, #128]	; (80034cc <_malloc_r+0xb0>)
 800344c:	6823      	ldr	r3, [r4, #0]
 800344e:	b91b      	cbnz	r3, 8003458 <_malloc_r+0x3c>
 8003450:	4630      	mov	r0, r6
 8003452:	f000 fe19 	bl	8004088 <_sbrk_r>
 8003456:	6020      	str	r0, [r4, #0]
 8003458:	4629      	mov	r1, r5
 800345a:	4630      	mov	r0, r6
 800345c:	f000 fe14 	bl	8004088 <_sbrk_r>
 8003460:	1c43      	adds	r3, r0, #1
 8003462:	d124      	bne.n	80034ae <_malloc_r+0x92>
 8003464:	230c      	movs	r3, #12
 8003466:	4630      	mov	r0, r6
 8003468:	6033      	str	r3, [r6, #0]
 800346a:	f000 ffeb 	bl	8004444 <__malloc_unlock>
 800346e:	e7e4      	b.n	800343a <_malloc_r+0x1e>
 8003470:	680b      	ldr	r3, [r1, #0]
 8003472:	1b5b      	subs	r3, r3, r5
 8003474:	d418      	bmi.n	80034a8 <_malloc_r+0x8c>
 8003476:	2b0b      	cmp	r3, #11
 8003478:	d90f      	bls.n	800349a <_malloc_r+0x7e>
 800347a:	600b      	str	r3, [r1, #0]
 800347c:	18cc      	adds	r4, r1, r3
 800347e:	50cd      	str	r5, [r1, r3]
 8003480:	4630      	mov	r0, r6
 8003482:	f000 ffdf 	bl	8004444 <__malloc_unlock>
 8003486:	f104 000b 	add.w	r0, r4, #11
 800348a:	1d23      	adds	r3, r4, #4
 800348c:	f020 0007 	bic.w	r0, r0, #7
 8003490:	1ac3      	subs	r3, r0, r3
 8003492:	d0d3      	beq.n	800343c <_malloc_r+0x20>
 8003494:	425a      	negs	r2, r3
 8003496:	50e2      	str	r2, [r4, r3]
 8003498:	e7d0      	b.n	800343c <_malloc_r+0x20>
 800349a:	684b      	ldr	r3, [r1, #4]
 800349c:	428c      	cmp	r4, r1
 800349e:	bf16      	itet	ne
 80034a0:	6063      	strne	r3, [r4, #4]
 80034a2:	6013      	streq	r3, [r2, #0]
 80034a4:	460c      	movne	r4, r1
 80034a6:	e7eb      	b.n	8003480 <_malloc_r+0x64>
 80034a8:	460c      	mov	r4, r1
 80034aa:	6849      	ldr	r1, [r1, #4]
 80034ac:	e7cc      	b.n	8003448 <_malloc_r+0x2c>
 80034ae:	1cc4      	adds	r4, r0, #3
 80034b0:	f024 0403 	bic.w	r4, r4, #3
 80034b4:	42a0      	cmp	r0, r4
 80034b6:	d005      	beq.n	80034c4 <_malloc_r+0xa8>
 80034b8:	1a21      	subs	r1, r4, r0
 80034ba:	4630      	mov	r0, r6
 80034bc:	f000 fde4 	bl	8004088 <_sbrk_r>
 80034c0:	3001      	adds	r0, #1
 80034c2:	d0cf      	beq.n	8003464 <_malloc_r+0x48>
 80034c4:	6025      	str	r5, [r4, #0]
 80034c6:	e7db      	b.n	8003480 <_malloc_r+0x64>
 80034c8:	20001db8 	.word	0x20001db8
 80034cc:	20001dbc 	.word	0x20001dbc

080034d0 <__ssputs_r>:
 80034d0:	e92d 47f0 	stmdb	sp!, {r4, r5, r6, r7, r8, r9, sl, lr}
 80034d4:	688e      	ldr	r6, [r1, #8]
 80034d6:	4682      	mov	sl, r0
 80034d8:	429e      	cmp	r6, r3
 80034da:	460c      	mov	r4, r1
 80034dc:	4690      	mov	r8, r2
 80034de:	4699      	mov	r9, r3
 80034e0:	d837      	bhi.n	8003552 <__ssputs_r+0x82>
 80034e2:	898a      	ldrh	r2, [r1, #12]
 80034e4:	f412 6f90 	tst.w	r2, #1152	; 0x480
 80034e8:	d031      	beq.n	800354e <__ssputs_r+0x7e>
 80034ea:	2302      	movs	r3, #2
 80034ec:	6825      	ldr	r5, [r4, #0]
 80034ee:	6909      	ldr	r1, [r1, #16]
 80034f0:	1a6f      	subs	r7, r5, r1
 80034f2:	6965      	ldr	r5, [r4, #20]
 80034f4:	eb05 0545 	add.w	r5, r5, r5, lsl #1
 80034f8:	fb95 f5f3 	sdiv	r5, r5, r3
 80034fc:	f109 0301 	add.w	r3, r9, #1
 8003500:	443b      	add	r3, r7
 8003502:	429d      	cmp	r5, r3
 8003504:	bf38      	it	cc
 8003506:	461d      	movcc	r5, r3
 8003508:	0553      	lsls	r3, r2, #21
 800350a:	d530      	bpl.n	800356e <__ssputs_r+0x9e>
 800350c:	4629      	mov	r1, r5
 800350e:	f7ff ff85 	bl	800341c <_malloc_r>
 8003512:	4606      	mov	r6, r0
 8003514:	b950      	cbnz	r0, 800352c <__ssputs_r+0x5c>
 8003516:	230c      	movs	r3, #12
 8003518:	f04f 30ff 	mov.w	r0, #4294967295	; 0xffffffff
 800351c:	f8ca 3000 	str.w	r3, [sl]
 8003520:	89a3      	ldrh	r3, [r4, #12]
 8003522:	f043 0340 	orr.w	r3, r3, #64	; 0x40
 8003526:	81a3      	strh	r3, [r4, #12]
 8003528:	e8bd 87f0 	ldmia.w	sp!, {r4, r5, r6, r7, r8, r9, sl, pc}
 800352c:	463a      	mov	r2, r7
 800352e:	6921      	ldr	r1, [r4, #16]
 8003530:	f7ff fe3c 	bl	80031ac <memcpy>
 8003534:	89a3      	ldrh	r3, [r4, #12]
 8003536:	f423 6390 	bic.w	r3, r3, #1152	; 0x480
 800353a:	f043 0380 	orr.w	r3, r3, #128	; 0x80
 800353e:	81a3      	strh	r3, [r4, #12]
 8003540:	6126      	str	r6, [r4, #16]
 8003542:	443e      	add	r6, r7
 8003544:	6026      	str	r6, [r4, #0]
 8003546:	464e      	mov	r6, r9
 8003548:	6165      	str	r5, [r4, #20]
 800354a:	1bed      	subs	r5, r5, r7
 800354c:	60a5      	str	r5, [r4, #8]
 800354e:	454e      	cmp	r6, r9
 8003550:	d900      	bls.n	8003554 <__ssputs_r+0x84>
 8003552:	464e      	mov	r6, r9
 8003554:	4632      	mov	r2, r6
 8003556:	4641      	mov	r1, r8
 8003558:	6820      	ldr	r0, [r4, #0]
 800355a:	f000 ff59 	bl	8004410 <memmove>
 800355e:	68a3      	ldr	r3, [r4, #8]
 8003560:	2000      	movs	r0, #0
 8003562:	1b9b      	subs	r3, r3, r6
 8003564:	60a3      	str	r3, [r4, #8]
 8003566:	6823      	ldr	r3, [r4, #0]
 8003568:	441e      	add	r6, r3
 800356a:	6026      	str	r6, [r4, #0]
 800356c:	e7dc      	b.n	8003528 <__ssputs_r+0x58>
 800356e:	462a      	mov	r2, r5
 8003570:	f000 ff69 	bl	8004446 <_realloc_r>
 8003574:	4606      	mov	r6, r0
 8003576:	2800      	cmp	r0, #0
 8003578:	d1e2      	bne.n	8003540 <__ssputs_r+0x70>
 800357a:	6921      	ldr	r1, [r4, #16]
 800357c:	4650      	mov	r0, sl
 800357e:	f7ff ff01 	bl	8003384 <_free_r>
 8003582:	e7c8      	b.n	8003516 <__ssputs_r+0x46>

08003584 <_svfiprintf_r>:
 8003584:	e92d 4ff0 	stmdb	sp!, {r4, r5, r6, r7, r8, r9, sl, fp, lr}
 8003588:	461d      	mov	r5, r3
 800358a:	898b      	ldrh	r3, [r1, #12]
 800358c:	b09d      	sub	sp, #116	; 0x74
 800358e:	061f      	lsls	r7, r3, #24
 8003590:	4680      	mov	r8, r0
 8003592:	460c      	mov	r4, r1
 8003594:	4616      	mov	r6, r2
 8003596:	d50f      	bpl.n	80035b8 <_svfiprintf_r+0x34>
 8003598:	690b      	ldr	r3, [r1, #16]
 800359a:	b96b      	cbnz	r3, 80035b8 <_svfiprintf_r+0x34>
 800359c:	2140      	movs	r1, #64	; 0x40
 800359e:	f7ff ff3d 	bl	800341c <_malloc_r>
 80035a2:	6020      	str	r0, [r4, #0]
 80035a4:	6120      	str	r0, [r4, #16]
 80035a6:	b928      	cbnz	r0, 80035b4 <_svfiprintf_r+0x30>
 80035a8:	230c      	movs	r3, #12
 80035aa:	f8c8 3000 	str.w	r3, [r8]
 80035ae:	f04f 30ff 	mov.w	r0, #4294967295	; 0xffffffff
 80035b2:	e0c8      	b.n	8003746 <_svfiprintf_r+0x1c2>
 80035b4:	2340      	movs	r3, #64	; 0x40
 80035b6:	6163      	str	r3, [r4, #20]
 80035b8:	2300      	movs	r3, #0
 80035ba:	9309      	str	r3, [sp, #36]	; 0x24
 80035bc:	2320      	movs	r3, #32
 80035be:	f88d 3029 	strb.w	r3, [sp, #41]	; 0x29
 80035c2:	2330      	movs	r3, #48	; 0x30
 80035c4:	f04f 0b01 	mov.w	fp, #1
 80035c8:	f88d 302a 	strb.w	r3, [sp, #42]	; 0x2a
 80035cc:	9503      	str	r5, [sp, #12]
 80035ce:	4637      	mov	r7, r6
 80035d0:	463d      	mov	r5, r7
 80035d2:	f815 3b01 	ldrb.w	r3, [r5], #1
 80035d6:	b10b      	cbz	r3, 80035dc <_svfiprintf_r+0x58>
 80035d8:	2b25      	cmp	r3, #37	; 0x25
 80035da:	d13e      	bne.n	800365a <_svfiprintf_r+0xd6>
 80035dc:	ebb7 0a06 	subs.w	sl, r7, r6
 80035e0:	d00b      	beq.n	80035fa <_svfiprintf_r+0x76>
 80035e2:	4653      	mov	r3, sl
 80035e4:	4632      	mov	r2, r6
 80035e6:	4621      	mov	r1, r4
 80035e8:	4640      	mov	r0, r8
 80035ea:	f7ff ff71 	bl	80034d0 <__ssputs_r>
 80035ee:	3001      	adds	r0, #1
 80035f0:	f000 80a4 	beq.w	800373c <_svfiprintf_r+0x1b8>
 80035f4:	9b09      	ldr	r3, [sp, #36]	; 0x24
 80035f6:	4453      	add	r3, sl
 80035f8:	9309      	str	r3, [sp, #36]	; 0x24
 80035fa:	783b      	ldrb	r3, [r7, #0]
 80035fc:	2b00      	cmp	r3, #0
 80035fe:	f000 809d 	beq.w	800373c <_svfiprintf_r+0x1b8>
 8003602:	2300      	movs	r3, #0
 8003604:	f04f 32ff 	mov.w	r2, #4294967295	; 0xffffffff
 8003608:	e9cd 2305 	strd	r2, r3, [sp, #20]
 800360c:	9304      	str	r3, [sp, #16]
 800360e:	9307      	str	r3, [sp, #28]
 8003610:	f88d 3053 	strb.w	r3, [sp, #83]	; 0x53
 8003614:	931a      	str	r3, [sp, #104]	; 0x68
 8003616:	462f      	mov	r7, r5
 8003618:	2205      	movs	r2, #5
 800361a:	f817 1b01 	ldrb.w	r1, [r7], #1
 800361e:	4850      	ldr	r0, [pc, #320]	; (8003760 <_svfiprintf_r+0x1dc>)
 8003620:	f000 fee8 	bl	80043f4 <memchr>
 8003624:	9b04      	ldr	r3, [sp, #16]
 8003626:	b9d0      	cbnz	r0, 800365e <_svfiprintf_r+0xda>
 8003628:	06d9      	lsls	r1, r3, #27
 800362a:	bf44      	itt	mi
 800362c:	2220      	movmi	r2, #32
 800362e:	f88d 2053 	strbmi.w	r2, [sp, #83]	; 0x53
 8003632:	071a      	lsls	r2, r3, #28
 8003634:	bf44      	itt	mi
 8003636:	222b      	movmi	r2, #43	; 0x2b
 8003638:	f88d 2053 	strbmi.w	r2, [sp, #83]	; 0x53
 800363c:	782a      	ldrb	r2, [r5, #0]
 800363e:	2a2a      	cmp	r2, #42	; 0x2a
 8003640:	d015      	beq.n	800366e <_svfiprintf_r+0xea>
 8003642:	462f      	mov	r7, r5
 8003644:	2000      	movs	r0, #0
 8003646:	250a      	movs	r5, #10
 8003648:	9a07      	ldr	r2, [sp, #28]
 800364a:	4639      	mov	r1, r7
 800364c:	f811 3b01 	ldrb.w	r3, [r1], #1
 8003650:	3b30      	subs	r3, #48	; 0x30
 8003652:	2b09      	cmp	r3, #9
 8003654:	d94d      	bls.n	80036f2 <_svfiprintf_r+0x16e>
 8003656:	b1b8      	cbz	r0, 8003688 <_svfiprintf_r+0x104>
 8003658:	e00f      	b.n	800367a <_svfiprintf_r+0xf6>
 800365a:	462f      	mov	r7, r5
 800365c:	e7b8      	b.n	80035d0 <_svfiprintf_r+0x4c>
 800365e:	4a40      	ldr	r2, [pc, #256]	; (8003760 <_svfiprintf_r+0x1dc>)
 8003660:	463d      	mov	r5, r7
 8003662:	1a80      	subs	r0, r0, r2
 8003664:	fa0b f000 	lsl.w	r0, fp, r0
 8003668:	4318      	orrs	r0, r3
 800366a:	9004      	str	r0, [sp, #16]
 800366c:	e7d3      	b.n	8003616 <_svfiprintf_r+0x92>
 800366e:	9a03      	ldr	r2, [sp, #12]
 8003670:	1d11      	adds	r1, r2, #4
 8003672:	6812      	ldr	r2, [r2, #0]
 8003674:	9103      	str	r1, [sp, #12]
 8003676:	2a00      	cmp	r2, #0
 8003678:	db01      	blt.n	800367e <_svfiprintf_r+0xfa>
 800367a:	9207      	str	r2, [sp, #28]
 800367c:	e004      	b.n	8003688 <_svfiprintf_r+0x104>
 800367e:	4252      	negs	r2, r2
 8003680:	f043 0302 	orr.w	r3, r3, #2
 8003684:	9207      	str	r2, [sp, #28]
 8003686:	9304      	str	r3, [sp, #16]
 8003688:	783b      	ldrb	r3, [r7, #0]
 800368a:	2b2e      	cmp	r3, #46	; 0x2e
 800368c:	d10c      	bne.n	80036a8 <_svfiprintf_r+0x124>
 800368e:	787b      	ldrb	r3, [r7, #1]
 8003690:	2b2a      	cmp	r3, #42	; 0x2a
 8003692:	d133      	bne.n	80036fc <_svfiprintf_r+0x178>
 8003694:	9b03      	ldr	r3, [sp, #12]
 8003696:	3702      	adds	r7, #2
 8003698:	1d1a      	adds	r2, r3, #4
 800369a:	681b      	ldr	r3, [r3, #0]
 800369c:	9203      	str	r2, [sp, #12]
 800369e:	2b00      	cmp	r3, #0
 80036a0:	bfb8      	it	lt
 80036a2:	f04f 33ff 	movlt.w	r3, #4294967295	; 0xffffffff
 80036a6:	9305      	str	r3, [sp, #20]
 80036a8:	4d2e      	ldr	r5, [pc, #184]	; (8003764 <_svfiprintf_r+0x1e0>)
 80036aa:	2203      	movs	r2, #3
 80036ac:	7839      	ldrb	r1, [r7, #0]
 80036ae:	4628      	mov	r0, r5
 80036b0:	f000 fea0 	bl	80043f4 <memchr>
 80036b4:	b138      	cbz	r0, 80036c6 <_svfiprintf_r+0x142>
 80036b6:	2340      	movs	r3, #64	; 0x40
 80036b8:	1b40      	subs	r0, r0, r5
 80036ba:	fa03 f000 	lsl.w	r0, r3, r0
 80036be:	9b04      	ldr	r3, [sp, #16]
 80036c0:	3701      	adds	r7, #1
 80036c2:	4303      	orrs	r3, r0
 80036c4:	9304      	str	r3, [sp, #16]
 80036c6:	7839      	ldrb	r1, [r7, #0]
 80036c8:	2206      	movs	r2, #6
 80036ca:	4827      	ldr	r0, [pc, #156]	; (8003768 <_svfiprintf_r+0x1e4>)
 80036cc:	1c7e      	adds	r6, r7, #1
 80036ce:	f88d 1028 	strb.w	r1, [sp, #40]	; 0x28
 80036d2:	f000 fe8f 	bl	80043f4 <memchr>
 80036d6:	2800      	cmp	r0, #0
 80036d8:	d038      	beq.n	800374c <_svfiprintf_r+0x1c8>
 80036da:	4b24      	ldr	r3, [pc, #144]	; (800376c <_svfiprintf_r+0x1e8>)
 80036dc:	bb13      	cbnz	r3, 8003724 <_svfiprintf_r+0x1a0>
 80036de:	9b03      	ldr	r3, [sp, #12]
 80036e0:	3307      	adds	r3, #7
 80036e2:	f023 0307 	bic.w	r3, r3, #7
 80036e6:	3308      	adds	r3, #8
 80036e8:	9303      	str	r3, [sp, #12]
 80036ea:	9b09      	ldr	r3, [sp, #36]	; 0x24
 80036ec:	444b      	add	r3, r9
 80036ee:	9309      	str	r3, [sp, #36]	; 0x24
 80036f0:	e76d      	b.n	80035ce <_svfiprintf_r+0x4a>
 80036f2:	fb05 3202 	mla	r2, r5, r2, r3
 80036f6:	2001      	movs	r0, #1
 80036f8:	460f      	mov	r7, r1
 80036fa:	e7a6      	b.n	800364a <_svfiprintf_r+0xc6>
 80036fc:	2300      	movs	r3, #0
 80036fe:	250a      	movs	r5, #10
 8003700:	4619      	mov	r1, r3
 8003702:	3701      	adds	r7, #1
 8003704:	9305      	str	r3, [sp, #20]
 8003706:	4638      	mov	r0, r7
 8003708:	f810 2b01 	ldrb.w	r2, [r0], #1
 800370c:	3a30      	subs	r2, #48	; 0x30
 800370e:	2a09      	cmp	r2, #9
 8003710:	d903      	bls.n	800371a <_svfiprintf_r+0x196>
 8003712:	2b00      	cmp	r3, #0
 8003714:	d0c8      	beq.n	80036a8 <_svfiprintf_r+0x124>
 8003716:	9105      	str	r1, [sp, #20]
 8003718:	e7c6      	b.n	80036a8 <_svfiprintf_r+0x124>
 800371a:	fb05 2101 	mla	r1, r5, r1, r2
 800371e:	2301      	movs	r3, #1
 8003720:	4607      	mov	r7, r0
 8003722:	e7f0      	b.n	8003706 <_svfiprintf_r+0x182>
 8003724:	ab03      	add	r3, sp, #12
 8003726:	9300      	str	r3, [sp, #0]
 8003728:	4622      	mov	r2, r4
 800372a:	4b11      	ldr	r3, [pc, #68]	; (8003770 <_svfiprintf_r+0x1ec>)
 800372c:	a904      	add	r1, sp, #16
 800372e:	4640      	mov	r0, r8
 8003730:	f3af 8000 	nop.w
 8003734:	f1b0 3fff 	cmp.w	r0, #4294967295	; 0xffffffff
 8003738:	4681      	mov	r9, r0
 800373a:	d1d6      	bne.n	80036ea <_svfiprintf_r+0x166>
 800373c:	89a3      	ldrh	r3, [r4, #12]
 800373e:	065b      	lsls	r3, r3, #25
 8003740:	f53f af35 	bmi.w	80035ae <_svfiprintf_r+0x2a>
 8003744:	9809      	ldr	r0, [sp, #36]	; 0x24
 8003746:	b01d      	add	sp, #116	; 0x74
 8003748:	e8bd 8ff0 	ldmia.w	sp!, {r4, r5, r6, r7, r8, r9, sl, fp, pc}
 800374c:	ab03      	add	r3, sp, #12
 800374e:	9300      	str	r3, [sp, #0]
 8003750:	4622      	mov	r2, r4
 8003752:	4b07      	ldr	r3, [pc, #28]	; (8003770 <_svfiprintf_r+0x1ec>)
 8003754:	a904      	add	r1, sp, #16
 8003756:	4640      	mov	r0, r8
 8003758:	f000 fa2c 	bl	8003bb4 <_printf_i>
 800375c:	e7ea      	b.n	8003734 <_svfiprintf_r+0x1b0>
 800375e:	bf00      	nop
 8003760:	080048a0 	.word	0x080048a0
 8003764:	080048a6 	.word	0x080048a6
 8003768:	080048aa 	.word	0x080048aa
 800376c:	00000000 	.word	0x00000000
 8003770:	080034d1 	.word	0x080034d1

08003774 <_sungetc_r>:
 8003774:	b538      	push	{r3, r4, r5, lr}
 8003776:	1c4b      	adds	r3, r1, #1
 8003778:	4614      	mov	r4, r2
 800377a:	d103      	bne.n	8003784 <_sungetc_r+0x10>
 800377c:	f04f 35ff 	mov.w	r5, #4294967295	; 0xffffffff
 8003780:	4628      	mov	r0, r5
 8003782:	bd38      	pop	{r3, r4, r5, pc}
 8003784:	8993      	ldrh	r3, [r2, #12]
 8003786:	b2cd      	uxtb	r5, r1
 8003788:	f023 0320 	bic.w	r3, r3, #32
 800378c:	8193      	strh	r3, [r2, #12]
 800378e:	6b63      	ldr	r3, [r4, #52]	; 0x34
 8003790:	6852      	ldr	r2, [r2, #4]
 8003792:	b18b      	cbz	r3, 80037b8 <_sungetc_r+0x44>
 8003794:	6ba3      	ldr	r3, [r4, #56]	; 0x38
 8003796:	4293      	cmp	r3, r2
 8003798:	dd08      	ble.n	80037ac <_sungetc_r+0x38>
 800379a:	6823      	ldr	r3, [r4, #0]
 800379c:	1e5a      	subs	r2, r3, #1
 800379e:	6022      	str	r2, [r4, #0]
 80037a0:	f803 5c01 	strb.w	r5, [r3, #-1]
 80037a4:	6863      	ldr	r3, [r4, #4]
 80037a6:	3301      	adds	r3, #1
 80037a8:	6063      	str	r3, [r4, #4]
 80037aa:	e7e9      	b.n	8003780 <_sungetc_r+0xc>
 80037ac:	4621      	mov	r1, r4
 80037ae:	f000 fdc5 	bl	800433c <__submore>
 80037b2:	2800      	cmp	r0, #0
 80037b4:	d0f1      	beq.n	800379a <_sungetc_r+0x26>
 80037b6:	e7e1      	b.n	800377c <_sungetc_r+0x8>
 80037b8:	6921      	ldr	r1, [r4, #16]
 80037ba:	6823      	ldr	r3, [r4, #0]
 80037bc:	b151      	cbz	r1, 80037d4 <_sungetc_r+0x60>
 80037be:	4299      	cmp	r1, r3
 80037c0:	d208      	bcs.n	80037d4 <_sungetc_r+0x60>
 80037c2:	f813 1c01 	ldrb.w	r1, [r3, #-1]
 80037c6:	42a9      	cmp	r1, r5
 80037c8:	d104      	bne.n	80037d4 <_sungetc_r+0x60>
 80037ca:	3b01      	subs	r3, #1
 80037cc:	3201      	adds	r2, #1
 80037ce:	6023      	str	r3, [r4, #0]
 80037d0:	6062      	str	r2, [r4, #4]
 80037d2:	e7d5      	b.n	8003780 <_sungetc_r+0xc>
 80037d4:	e9c4 320f 	strd	r3, r2, [r4, #60]	; 0x3c
 80037d8:	f104 0344 	add.w	r3, r4, #68	; 0x44
 80037dc:	6363      	str	r3, [r4, #52]	; 0x34
 80037de:	2303      	movs	r3, #3
 80037e0:	63a3      	str	r3, [r4, #56]	; 0x38
 80037e2:	4623      	mov	r3, r4
 80037e4:	f803 5f46 	strb.w	r5, [r3, #70]!
 80037e8:	6023      	str	r3, [r4, #0]
 80037ea:	2301      	movs	r3, #1
 80037ec:	e7dc      	b.n	80037a8 <_sungetc_r+0x34>

080037ee <__ssrefill_r>:
 80037ee:	b510      	push	{r4, lr}
 80037f0:	460c      	mov	r4, r1
 80037f2:	6b49      	ldr	r1, [r1, #52]	; 0x34
 80037f4:	b169      	cbz	r1, 8003812 <__ssrefill_r+0x24>
 80037f6:	f104 0344 	add.w	r3, r4, #68	; 0x44
 80037fa:	4299      	cmp	r1, r3
 80037fc:	d001      	beq.n	8003802 <__ssrefill_r+0x14>
 80037fe:	f7ff fdc1 	bl	8003384 <_free_r>
 8003802:	2000      	movs	r0, #0
 8003804:	6c23      	ldr	r3, [r4, #64]	; 0x40
 8003806:	6360      	str	r0, [r4, #52]	; 0x34
 8003808:	6063      	str	r3, [r4, #4]
 800380a:	b113      	cbz	r3, 8003812 <__ssrefill_r+0x24>
 800380c:	6be3      	ldr	r3, [r4, #60]	; 0x3c
 800380e:	6023      	str	r3, [r4, #0]
 8003810:	bd10      	pop	{r4, pc}
 8003812:	6923      	ldr	r3, [r4, #16]
 8003814:	f04f 30ff 	mov.w	r0, #4294967295	; 0xffffffff
 8003818:	6023      	str	r3, [r4, #0]
 800381a:	2300      	movs	r3, #0
 800381c:	6063      	str	r3, [r4, #4]
 800381e:	89a3      	ldrh	r3, [r4, #12]
 8003820:	f043 0320 	orr.w	r3, r3, #32
 8003824:	81a3      	strh	r3, [r4, #12]
 8003826:	e7f3      	b.n	8003810 <__ssrefill_r+0x22>

08003828 <__ssvfiscanf_r>:
 8003828:	e92d 4ff0 	stmdb	sp!, {r4, r5, r6, r7, r8, r9, sl, fp, lr}
 800382c:	460c      	mov	r4, r1
 800382e:	2100      	movs	r1, #0
 8003830:	4606      	mov	r6, r0
 8003832:	4692      	mov	sl, r2
 8003834:	270a      	movs	r7, #10
 8003836:	f5ad 7d23 	sub.w	sp, sp, #652	; 0x28c
 800383a:	9144      	str	r1, [sp, #272]	; 0x110
 800383c:	9145      	str	r1, [sp, #276]	; 0x114
 800383e:	499e      	ldr	r1, [pc, #632]	; (8003ab8 <__ssvfiscanf_r+0x290>)
 8003840:	f10d 0804 	add.w	r8, sp, #4
 8003844:	91a0      	str	r1, [sp, #640]	; 0x280
 8003846:	499d      	ldr	r1, [pc, #628]	; (8003abc <__ssvfiscanf_r+0x294>)
 8003848:	f8df 9274 	ldr.w	r9, [pc, #628]	; 8003ac0 <__ssvfiscanf_r+0x298>
 800384c:	f8cd 8118 	str.w	r8, [sp, #280]	; 0x118
 8003850:	91a1      	str	r1, [sp, #644]	; 0x284
 8003852:	9300      	str	r3, [sp, #0]
 8003854:	f89a 3000 	ldrb.w	r3, [sl]
 8003858:	2b00      	cmp	r3, #0
 800385a:	f000 812a 	beq.w	8003ab2 <__ssvfiscanf_r+0x28a>
 800385e:	4655      	mov	r5, sl
 8003860:	f000 fda8 	bl	80043b4 <__locale_ctype_ptr>
 8003864:	f815 bb01 	ldrb.w	fp, [r5], #1
 8003868:	4458      	add	r0, fp
 800386a:	7843      	ldrb	r3, [r0, #1]
 800386c:	f013 0308 	ands.w	r3, r3, #8
 8003870:	d01c      	beq.n	80038ac <__ssvfiscanf_r+0x84>
 8003872:	6863      	ldr	r3, [r4, #4]
 8003874:	2b00      	cmp	r3, #0
 8003876:	dd12      	ble.n	800389e <__ssvfiscanf_r+0x76>
 8003878:	f000 fd9c 	bl	80043b4 <__locale_ctype_ptr>
 800387c:	6823      	ldr	r3, [r4, #0]
 800387e:	781a      	ldrb	r2, [r3, #0]
 8003880:	4410      	add	r0, r2
 8003882:	7842      	ldrb	r2, [r0, #1]
 8003884:	0712      	lsls	r2, r2, #28
 8003886:	d401      	bmi.n	800388c <__ssvfiscanf_r+0x64>
 8003888:	46aa      	mov	sl, r5
 800388a:	e7e3      	b.n	8003854 <__ssvfiscanf_r+0x2c>
 800388c:	9a45      	ldr	r2, [sp, #276]	; 0x114
 800388e:	3301      	adds	r3, #1
 8003890:	3201      	adds	r2, #1
 8003892:	9245      	str	r2, [sp, #276]	; 0x114
 8003894:	6862      	ldr	r2, [r4, #4]
 8003896:	6023      	str	r3, [r4, #0]
 8003898:	3a01      	subs	r2, #1
 800389a:	6062      	str	r2, [r4, #4]
 800389c:	e7e9      	b.n	8003872 <__ssvfiscanf_r+0x4a>
 800389e:	9ba1      	ldr	r3, [sp, #644]	; 0x284
 80038a0:	4621      	mov	r1, r4
 80038a2:	4630      	mov	r0, r6
 80038a4:	4798      	blx	r3
 80038a6:	2800      	cmp	r0, #0
 80038a8:	d0e6      	beq.n	8003878 <__ssvfiscanf_r+0x50>
 80038aa:	e7ed      	b.n	8003888 <__ssvfiscanf_r+0x60>
 80038ac:	f1bb 0f25 	cmp.w	fp, #37	; 0x25
 80038b0:	f040 8082 	bne.w	80039b8 <__ssvfiscanf_r+0x190>
 80038b4:	9343      	str	r3, [sp, #268]	; 0x10c
 80038b6:	9341      	str	r3, [sp, #260]	; 0x104
 80038b8:	f89a 3001 	ldrb.w	r3, [sl, #1]
 80038bc:	2b2a      	cmp	r3, #42	; 0x2a
 80038be:	d103      	bne.n	80038c8 <__ssvfiscanf_r+0xa0>
 80038c0:	2310      	movs	r3, #16
 80038c2:	f10a 0502 	add.w	r5, sl, #2
 80038c6:	9341      	str	r3, [sp, #260]	; 0x104
 80038c8:	46aa      	mov	sl, r5
 80038ca:	f815 1b01 	ldrb.w	r1, [r5], #1
 80038ce:	f1a1 0230 	sub.w	r2, r1, #48	; 0x30
 80038d2:	2a09      	cmp	r2, #9
 80038d4:	d922      	bls.n	800391c <__ssvfiscanf_r+0xf4>
 80038d6:	2203      	movs	r2, #3
 80038d8:	4879      	ldr	r0, [pc, #484]	; (8003ac0 <__ssvfiscanf_r+0x298>)
 80038da:	f000 fd8b 	bl	80043f4 <memchr>
 80038de:	b138      	cbz	r0, 80038f0 <__ssvfiscanf_r+0xc8>
 80038e0:	eba0 0309 	sub.w	r3, r0, r9
 80038e4:	2001      	movs	r0, #1
 80038e6:	46aa      	mov	sl, r5
 80038e8:	4098      	lsls	r0, r3
 80038ea:	9b41      	ldr	r3, [sp, #260]	; 0x104
 80038ec:	4318      	orrs	r0, r3
 80038ee:	9041      	str	r0, [sp, #260]	; 0x104
 80038f0:	f89a 3000 	ldrb.w	r3, [sl]
 80038f4:	f10a 0501 	add.w	r5, sl, #1
 80038f8:	2b67      	cmp	r3, #103	; 0x67
 80038fa:	d82b      	bhi.n	8003954 <__ssvfiscanf_r+0x12c>
 80038fc:	2b65      	cmp	r3, #101	; 0x65
 80038fe:	f080 809f 	bcs.w	8003a40 <__ssvfiscanf_r+0x218>
 8003902:	2b47      	cmp	r3, #71	; 0x47
 8003904:	d810      	bhi.n	8003928 <__ssvfiscanf_r+0x100>
 8003906:	2b45      	cmp	r3, #69	; 0x45
 8003908:	f080 809a 	bcs.w	8003a40 <__ssvfiscanf_r+0x218>
 800390c:	2b00      	cmp	r3, #0
 800390e:	d06c      	beq.n	80039ea <__ssvfiscanf_r+0x1c2>
 8003910:	2b25      	cmp	r3, #37	; 0x25
 8003912:	d051      	beq.n	80039b8 <__ssvfiscanf_r+0x190>
 8003914:	2303      	movs	r3, #3
 8003916:	9742      	str	r7, [sp, #264]	; 0x108
 8003918:	9347      	str	r3, [sp, #284]	; 0x11c
 800391a:	e027      	b.n	800396c <__ssvfiscanf_r+0x144>
 800391c:	9b43      	ldr	r3, [sp, #268]	; 0x10c
 800391e:	fb07 1303 	mla	r3, r7, r3, r1
 8003922:	3b30      	subs	r3, #48	; 0x30
 8003924:	9343      	str	r3, [sp, #268]	; 0x10c
 8003926:	e7cf      	b.n	80038c8 <__ssvfiscanf_r+0xa0>
 8003928:	2b5b      	cmp	r3, #91	; 0x5b
 800392a:	d06a      	beq.n	8003a02 <__ssvfiscanf_r+0x1da>
 800392c:	d80c      	bhi.n	8003948 <__ssvfiscanf_r+0x120>
 800392e:	2b58      	cmp	r3, #88	; 0x58
 8003930:	d1f0      	bne.n	8003914 <__ssvfiscanf_r+0xec>
 8003932:	9a41      	ldr	r2, [sp, #260]	; 0x104
 8003934:	f442 7200 	orr.w	r2, r2, #512	; 0x200
 8003938:	9241      	str	r2, [sp, #260]	; 0x104
 800393a:	2210      	movs	r2, #16
 800393c:	9242      	str	r2, [sp, #264]	; 0x108
 800393e:	2b6e      	cmp	r3, #110	; 0x6e
 8003940:	bf8c      	ite	hi
 8003942:	2304      	movhi	r3, #4
 8003944:	2303      	movls	r3, #3
 8003946:	e010      	b.n	800396a <__ssvfiscanf_r+0x142>
 8003948:	2b63      	cmp	r3, #99	; 0x63
 800394a:	d065      	beq.n	8003a18 <__ssvfiscanf_r+0x1f0>
 800394c:	2b64      	cmp	r3, #100	; 0x64
 800394e:	d1e1      	bne.n	8003914 <__ssvfiscanf_r+0xec>
 8003950:	9742      	str	r7, [sp, #264]	; 0x108
 8003952:	e7f4      	b.n	800393e <__ssvfiscanf_r+0x116>
 8003954:	2b70      	cmp	r3, #112	; 0x70
 8003956:	d04b      	beq.n	80039f0 <__ssvfiscanf_r+0x1c8>
 8003958:	d826      	bhi.n	80039a8 <__ssvfiscanf_r+0x180>
 800395a:	2b6e      	cmp	r3, #110	; 0x6e
 800395c:	d062      	beq.n	8003a24 <__ssvfiscanf_r+0x1fc>
 800395e:	d84c      	bhi.n	80039fa <__ssvfiscanf_r+0x1d2>
 8003960:	2b69      	cmp	r3, #105	; 0x69
 8003962:	d1d7      	bne.n	8003914 <__ssvfiscanf_r+0xec>
 8003964:	2300      	movs	r3, #0
 8003966:	9342      	str	r3, [sp, #264]	; 0x108
 8003968:	2303      	movs	r3, #3
 800396a:	9347      	str	r3, [sp, #284]	; 0x11c
 800396c:	6863      	ldr	r3, [r4, #4]
 800396e:	2b00      	cmp	r3, #0
 8003970:	dd68      	ble.n	8003a44 <__ssvfiscanf_r+0x21c>
 8003972:	9b41      	ldr	r3, [sp, #260]	; 0x104
 8003974:	0659      	lsls	r1, r3, #25
 8003976:	d407      	bmi.n	8003988 <__ssvfiscanf_r+0x160>
 8003978:	f000 fd1c 	bl	80043b4 <__locale_ctype_ptr>
 800397c:	6823      	ldr	r3, [r4, #0]
 800397e:	781a      	ldrb	r2, [r3, #0]
 8003980:	4410      	add	r0, r2
 8003982:	7842      	ldrb	r2, [r0, #1]
 8003984:	0712      	lsls	r2, r2, #28
 8003986:	d464      	bmi.n	8003a52 <__ssvfiscanf_r+0x22a>
 8003988:	9b47      	ldr	r3, [sp, #284]	; 0x11c
 800398a:	2b02      	cmp	r3, #2
 800398c:	dc73      	bgt.n	8003a76 <__ssvfiscanf_r+0x24e>
 800398e:	466b      	mov	r3, sp
 8003990:	4622      	mov	r2, r4
 8003992:	a941      	add	r1, sp, #260	; 0x104
 8003994:	4630      	mov	r0, r6
 8003996:	f000 fa1f 	bl	8003dd8 <_scanf_chars>
 800399a:	2801      	cmp	r0, #1
 800399c:	f000 8089 	beq.w	8003ab2 <__ssvfiscanf_r+0x28a>
 80039a0:	2802      	cmp	r0, #2
 80039a2:	f47f af71 	bne.w	8003888 <__ssvfiscanf_r+0x60>
 80039a6:	e01d      	b.n	80039e4 <__ssvfiscanf_r+0x1bc>
 80039a8:	2b75      	cmp	r3, #117	; 0x75
 80039aa:	d0d1      	beq.n	8003950 <__ssvfiscanf_r+0x128>
 80039ac:	2b78      	cmp	r3, #120	; 0x78
 80039ae:	d0c0      	beq.n	8003932 <__ssvfiscanf_r+0x10a>
 80039b0:	2b73      	cmp	r3, #115	; 0x73
 80039b2:	d1af      	bne.n	8003914 <__ssvfiscanf_r+0xec>
 80039b4:	2302      	movs	r3, #2
 80039b6:	e7d8      	b.n	800396a <__ssvfiscanf_r+0x142>
 80039b8:	6863      	ldr	r3, [r4, #4]
 80039ba:	2b00      	cmp	r3, #0
 80039bc:	dd0c      	ble.n	80039d8 <__ssvfiscanf_r+0x1b0>
 80039be:	6823      	ldr	r3, [r4, #0]
 80039c0:	781a      	ldrb	r2, [r3, #0]
 80039c2:	455a      	cmp	r2, fp
 80039c4:	d175      	bne.n	8003ab2 <__ssvfiscanf_r+0x28a>
 80039c6:	3301      	adds	r3, #1
 80039c8:	6862      	ldr	r2, [r4, #4]
 80039ca:	6023      	str	r3, [r4, #0]
 80039cc:	9b45      	ldr	r3, [sp, #276]	; 0x114
 80039ce:	3a01      	subs	r2, #1
 80039d0:	3301      	adds	r3, #1
 80039d2:	6062      	str	r2, [r4, #4]
 80039d4:	9345      	str	r3, [sp, #276]	; 0x114
 80039d6:	e757      	b.n	8003888 <__ssvfiscanf_r+0x60>
 80039d8:	9ba1      	ldr	r3, [sp, #644]	; 0x284
 80039da:	4621      	mov	r1, r4
 80039dc:	4630      	mov	r0, r6
 80039de:	4798      	blx	r3
 80039e0:	2800      	cmp	r0, #0
 80039e2:	d0ec      	beq.n	80039be <__ssvfiscanf_r+0x196>
 80039e4:	9844      	ldr	r0, [sp, #272]	; 0x110
 80039e6:	2800      	cmp	r0, #0
 80039e8:	d159      	bne.n	8003a9e <__ssvfiscanf_r+0x276>
 80039ea:	f04f 30ff 	mov.w	r0, #4294967295	; 0xffffffff
 80039ee:	e05c      	b.n	8003aaa <__ssvfiscanf_r+0x282>
 80039f0:	9a41      	ldr	r2, [sp, #260]	; 0x104
 80039f2:	f042 0220 	orr.w	r2, r2, #32
 80039f6:	9241      	str	r2, [sp, #260]	; 0x104
 80039f8:	e79b      	b.n	8003932 <__ssvfiscanf_r+0x10a>
 80039fa:	2308      	movs	r3, #8
 80039fc:	9342      	str	r3, [sp, #264]	; 0x108
 80039fe:	2304      	movs	r3, #4
 8003a00:	e7b3      	b.n	800396a <__ssvfiscanf_r+0x142>
 8003a02:	4629      	mov	r1, r5
 8003a04:	4640      	mov	r0, r8
 8003a06:	f000 fb4f 	bl	80040a8 <__sccl>
 8003a0a:	9b41      	ldr	r3, [sp, #260]	; 0x104
 8003a0c:	4605      	mov	r5, r0
 8003a0e:	f043 0340 	orr.w	r3, r3, #64	; 0x40
 8003a12:	9341      	str	r3, [sp, #260]	; 0x104
 8003a14:	2301      	movs	r3, #1
 8003a16:	e7a8      	b.n	800396a <__ssvfiscanf_r+0x142>
 8003a18:	9b41      	ldr	r3, [sp, #260]	; 0x104
 8003a1a:	f043 0340 	orr.w	r3, r3, #64	; 0x40
 8003a1e:	9341      	str	r3, [sp, #260]	; 0x104
 8003a20:	2300      	movs	r3, #0
 8003a22:	e7a2      	b.n	800396a <__ssvfiscanf_r+0x142>
 8003a24:	9841      	ldr	r0, [sp, #260]	; 0x104
 8003a26:	06c3      	lsls	r3, r0, #27
 8003a28:	f53f af2e 	bmi.w	8003888 <__ssvfiscanf_r+0x60>
 8003a2c:	9b00      	ldr	r3, [sp, #0]
 8003a2e:	9a45      	ldr	r2, [sp, #276]	; 0x114
 8003a30:	1d19      	adds	r1, r3, #4
 8003a32:	9100      	str	r1, [sp, #0]
 8003a34:	681b      	ldr	r3, [r3, #0]
 8003a36:	07c0      	lsls	r0, r0, #31
 8003a38:	bf4c      	ite	mi
 8003a3a:	801a      	strhmi	r2, [r3, #0]
 8003a3c:	601a      	strpl	r2, [r3, #0]
 8003a3e:	e723      	b.n	8003888 <__ssvfiscanf_r+0x60>
 8003a40:	2305      	movs	r3, #5
 8003a42:	e792      	b.n	800396a <__ssvfiscanf_r+0x142>
 8003a44:	9ba1      	ldr	r3, [sp, #644]	; 0x284
 8003a46:	4621      	mov	r1, r4
 8003a48:	4630      	mov	r0, r6
 8003a4a:	4798      	blx	r3
 8003a4c:	2800      	cmp	r0, #0
 8003a4e:	d090      	beq.n	8003972 <__ssvfiscanf_r+0x14a>
 8003a50:	e7c8      	b.n	80039e4 <__ssvfiscanf_r+0x1bc>
 8003a52:	9a45      	ldr	r2, [sp, #276]	; 0x114
 8003a54:	3201      	adds	r2, #1
 8003a56:	9245      	str	r2, [sp, #276]	; 0x114
 8003a58:	6862      	ldr	r2, [r4, #4]
 8003a5a:	3a01      	subs	r2, #1
 8003a5c:	2a00      	cmp	r2, #0
 8003a5e:	6062      	str	r2, [r4, #4]
 8003a60:	dd02      	ble.n	8003a68 <__ssvfiscanf_r+0x240>
 8003a62:	3301      	adds	r3, #1
 8003a64:	6023      	str	r3, [r4, #0]
 8003a66:	e787      	b.n	8003978 <__ssvfiscanf_r+0x150>
 8003a68:	9ba1      	ldr	r3, [sp, #644]	; 0x284
 8003a6a:	4621      	mov	r1, r4
 8003a6c:	4630      	mov	r0, r6
 8003a6e:	4798      	blx	r3
 8003a70:	2800      	cmp	r0, #0
 8003a72:	d081      	beq.n	8003978 <__ssvfiscanf_r+0x150>
 8003a74:	e7b6      	b.n	80039e4 <__ssvfiscanf_r+0x1bc>
 8003a76:	2b04      	cmp	r3, #4
 8003a78:	dc06      	bgt.n	8003a88 <__ssvfiscanf_r+0x260>
 8003a7a:	466b      	mov	r3, sp
 8003a7c:	4622      	mov	r2, r4
 8003a7e:	a941      	add	r1, sp, #260	; 0x104
 8003a80:	4630      	mov	r0, r6
 8003a82:	f000 fa0b 	bl	8003e9c <_scanf_i>
 8003a86:	e788      	b.n	800399a <__ssvfiscanf_r+0x172>
 8003a88:	4b0e      	ldr	r3, [pc, #56]	; (8003ac4 <__ssvfiscanf_r+0x29c>)
 8003a8a:	2b00      	cmp	r3, #0
 8003a8c:	f43f aefc 	beq.w	8003888 <__ssvfiscanf_r+0x60>
 8003a90:	466b      	mov	r3, sp
 8003a92:	4622      	mov	r2, r4
 8003a94:	a941      	add	r1, sp, #260	; 0x104
 8003a96:	4630      	mov	r0, r6
 8003a98:	f3af 8000 	nop.w
 8003a9c:	e77d      	b.n	800399a <__ssvfiscanf_r+0x172>
 8003a9e:	89a3      	ldrh	r3, [r4, #12]
 8003aa0:	f013 0f40 	tst.w	r3, #64	; 0x40
 8003aa4:	bf18      	it	ne
 8003aa6:	f04f 30ff 	movne.w	r0, #4294967295	; 0xffffffff
 8003aaa:	f50d 7d23 	add.w	sp, sp, #652	; 0x28c
 8003aae:	e8bd 8ff0 	ldmia.w	sp!, {r4, r5, r6, r7, r8, r9, sl, fp, pc}
 8003ab2:	9844      	ldr	r0, [sp, #272]	; 0x110
 8003ab4:	e7f9      	b.n	8003aaa <__ssvfiscanf_r+0x282>
 8003ab6:	bf00      	nop
 8003ab8:	08003775 	.word	0x08003775
 8003abc:	080037ef 	.word	0x080037ef
 8003ac0:	080048a6 	.word	0x080048a6
 8003ac4:	00000000 	.word	0x00000000

08003ac8 <_printf_common>:
 8003ac8:	e92d 47f0 	stmdb	sp!, {r4, r5, r6, r7, r8, r9, sl, lr}
 8003acc:	4691      	mov	r9, r2
 8003ace:	461f      	mov	r7, r3
 8003ad0:	688a      	ldr	r2, [r1, #8]
 8003ad2:	690b      	ldr	r3, [r1, #16]
 8003ad4:	4606      	mov	r6, r0
 8003ad6:	4293      	cmp	r3, r2
 8003ad8:	bfb8      	it	lt
 8003ada:	4613      	movlt	r3, r2
 8003adc:	f8c9 3000 	str.w	r3, [r9]
 8003ae0:	f891 2043 	ldrb.w	r2, [r1, #67]	; 0x43
 8003ae4:	460c      	mov	r4, r1
 8003ae6:	f8dd 8020 	ldr.w	r8, [sp, #32]
 8003aea:	b112      	cbz	r2, 8003af2 <_printf_common+0x2a>
 8003aec:	3301      	adds	r3, #1
 8003aee:	f8c9 3000 	str.w	r3, [r9]
 8003af2:	6823      	ldr	r3, [r4, #0]
 8003af4:	0699      	lsls	r1, r3, #26
 8003af6:	bf42      	ittt	mi
 8003af8:	f8d9 3000 	ldrmi.w	r3, [r9]
 8003afc:	3302      	addmi	r3, #2
 8003afe:	f8c9 3000 	strmi.w	r3, [r9]
 8003b02:	6825      	ldr	r5, [r4, #0]
 8003b04:	f015 0506 	ands.w	r5, r5, #6
 8003b08:	d107      	bne.n	8003b1a <_printf_common+0x52>
 8003b0a:	f104 0a19 	add.w	sl, r4, #25
 8003b0e:	68e3      	ldr	r3, [r4, #12]
 8003b10:	f8d9 2000 	ldr.w	r2, [r9]
 8003b14:	1a9b      	subs	r3, r3, r2
 8003b16:	42ab      	cmp	r3, r5
 8003b18:	dc29      	bgt.n	8003b6e <_printf_common+0xa6>
 8003b1a:	f894 3043 	ldrb.w	r3, [r4, #67]	; 0x43
 8003b1e:	6822      	ldr	r2, [r4, #0]
 8003b20:	3300      	adds	r3, #0
 8003b22:	bf18      	it	ne
 8003b24:	2301      	movne	r3, #1
 8003b26:	0692      	lsls	r2, r2, #26
 8003b28:	d42e      	bmi.n	8003b88 <_printf_common+0xc0>
 8003b2a:	f104 0243 	add.w	r2, r4, #67	; 0x43
 8003b2e:	4639      	mov	r1, r7
 8003b30:	4630      	mov	r0, r6
 8003b32:	47c0      	blx	r8
 8003b34:	3001      	adds	r0, #1
 8003b36:	d021      	beq.n	8003b7c <_printf_common+0xb4>
 8003b38:	6823      	ldr	r3, [r4, #0]
 8003b3a:	68e5      	ldr	r5, [r4, #12]
 8003b3c:	f003 0306 	and.w	r3, r3, #6
 8003b40:	2b04      	cmp	r3, #4
 8003b42:	bf18      	it	ne
 8003b44:	2500      	movne	r5, #0
 8003b46:	f8d9 2000 	ldr.w	r2, [r9]
 8003b4a:	f04f 0900 	mov.w	r9, #0
 8003b4e:	bf08      	it	eq
 8003b50:	1aad      	subeq	r5, r5, r2
 8003b52:	68a3      	ldr	r3, [r4, #8]
 8003b54:	6922      	ldr	r2, [r4, #16]
 8003b56:	bf08      	it	eq
 8003b58:	ea25 75e5 	biceq.w	r5, r5, r5, asr #31
 8003b5c:	4293      	cmp	r3, r2
 8003b5e:	bfc4      	itt	gt
 8003b60:	1a9b      	subgt	r3, r3, r2
 8003b62:	18ed      	addgt	r5, r5, r3
 8003b64:	341a      	adds	r4, #26
 8003b66:	454d      	cmp	r5, r9
 8003b68:	d11a      	bne.n	8003ba0 <_printf_common+0xd8>
 8003b6a:	2000      	movs	r0, #0
 8003b6c:	e008      	b.n	8003b80 <_printf_common+0xb8>
 8003b6e:	2301      	movs	r3, #1
 8003b70:	4652      	mov	r2, sl
 8003b72:	4639      	mov	r1, r7
 8003b74:	4630      	mov	r0, r6
 8003b76:	47c0      	blx	r8
 8003b78:	3001      	adds	r0, #1
 8003b7a:	d103      	bne.n	8003b84 <_printf_common+0xbc>
 8003b7c:	f04f 30ff 	mov.w	r0, #4294967295	; 0xffffffff
 8003b80:	e8bd 87f0 	ldmia.w	sp!, {r4, r5, r6, r7, r8, r9, sl, pc}
 8003b84:	3501      	adds	r5, #1
 8003b86:	e7c2      	b.n	8003b0e <_printf_common+0x46>
 8003b88:	2030      	movs	r0, #48	; 0x30
 8003b8a:	18e1      	adds	r1, r4, r3
 8003b8c:	f881 0043 	strb.w	r0, [r1, #67]	; 0x43
 8003b90:	1c5a      	adds	r2, r3, #1
 8003b92:	f894 1045 	ldrb.w	r1, [r4, #69]	; 0x45
 8003b96:	4422      	add	r2, r4
 8003b98:	3302      	adds	r3, #2
 8003b9a:	f882 1043 	strb.w	r1, [r2, #67]	; 0x43
 8003b9e:	e7c4      	b.n	8003b2a <_printf_common+0x62>
 8003ba0:	2301      	movs	r3, #1
 8003ba2:	4622      	mov	r2, r4
 8003ba4:	4639      	mov	r1, r7
 8003ba6:	4630      	mov	r0, r6
 8003ba8:	47c0      	blx	r8
 8003baa:	3001      	adds	r0, #1
 8003bac:	d0e6      	beq.n	8003b7c <_printf_common+0xb4>
 8003bae:	f109 0901 	add.w	r9, r9, #1
 8003bb2:	e7d8      	b.n	8003b66 <_printf_common+0x9e>

08003bb4 <_printf_i>:
 8003bb4:	e92d 43f0 	stmdb	sp!, {r4, r5, r6, r7, r8, r9, lr}
 8003bb8:	f101 0c43 	add.w	ip, r1, #67	; 0x43
 8003bbc:	460c      	mov	r4, r1
 8003bbe:	7e09      	ldrb	r1, [r1, #24]
 8003bc0:	b085      	sub	sp, #20
 8003bc2:	296e      	cmp	r1, #110	; 0x6e
 8003bc4:	4617      	mov	r7, r2
 8003bc6:	4606      	mov	r6, r0
 8003bc8:	4698      	mov	r8, r3
 8003bca:	9a0c      	ldr	r2, [sp, #48]	; 0x30
 8003bcc:	f000 80b3 	beq.w	8003d36 <_printf_i+0x182>
 8003bd0:	d822      	bhi.n	8003c18 <_printf_i+0x64>
 8003bd2:	2963      	cmp	r1, #99	; 0x63
 8003bd4:	d036      	beq.n	8003c44 <_printf_i+0x90>
 8003bd6:	d80a      	bhi.n	8003bee <_printf_i+0x3a>
 8003bd8:	2900      	cmp	r1, #0
 8003bda:	f000 80b9 	beq.w	8003d50 <_printf_i+0x19c>
 8003bde:	2958      	cmp	r1, #88	; 0x58
 8003be0:	f000 8083 	beq.w	8003cea <_printf_i+0x136>
 8003be4:	f104 0542 	add.w	r5, r4, #66	; 0x42
 8003be8:	f884 1042 	strb.w	r1, [r4, #66]	; 0x42
 8003bec:	e032      	b.n	8003c54 <_printf_i+0xa0>
 8003bee:	2964      	cmp	r1, #100	; 0x64
 8003bf0:	d001      	beq.n	8003bf6 <_printf_i+0x42>
 8003bf2:	2969      	cmp	r1, #105	; 0x69
 8003bf4:	d1f6      	bne.n	8003be4 <_printf_i+0x30>
 8003bf6:	6820      	ldr	r0, [r4, #0]
 8003bf8:	6813      	ldr	r3, [r2, #0]
 8003bfa:	0605      	lsls	r5, r0, #24
 8003bfc:	f103 0104 	add.w	r1, r3, #4
 8003c00:	d52a      	bpl.n	8003c58 <_printf_i+0xa4>
 8003c02:	681b      	ldr	r3, [r3, #0]
 8003c04:	6011      	str	r1, [r2, #0]
 8003c06:	2b00      	cmp	r3, #0
 8003c08:	da03      	bge.n	8003c12 <_printf_i+0x5e>
 8003c0a:	222d      	movs	r2, #45	; 0x2d
 8003c0c:	425b      	negs	r3, r3
 8003c0e:	f884 2043 	strb.w	r2, [r4, #67]	; 0x43
 8003c12:	486f      	ldr	r0, [pc, #444]	; (8003dd0 <_printf_i+0x21c>)
 8003c14:	220a      	movs	r2, #10
 8003c16:	e039      	b.n	8003c8c <_printf_i+0xd8>
 8003c18:	2973      	cmp	r1, #115	; 0x73
 8003c1a:	f000 809d 	beq.w	8003d58 <_printf_i+0x1a4>
 8003c1e:	d808      	bhi.n	8003c32 <_printf_i+0x7e>
 8003c20:	296f      	cmp	r1, #111	; 0x6f
 8003c22:	d020      	beq.n	8003c66 <_printf_i+0xb2>
 8003c24:	2970      	cmp	r1, #112	; 0x70
 8003c26:	d1dd      	bne.n	8003be4 <_printf_i+0x30>
 8003c28:	6823      	ldr	r3, [r4, #0]
 8003c2a:	f043 0320 	orr.w	r3, r3, #32
 8003c2e:	6023      	str	r3, [r4, #0]
 8003c30:	e003      	b.n	8003c3a <_printf_i+0x86>
 8003c32:	2975      	cmp	r1, #117	; 0x75
 8003c34:	d017      	beq.n	8003c66 <_printf_i+0xb2>
 8003c36:	2978      	cmp	r1, #120	; 0x78
 8003c38:	d1d4      	bne.n	8003be4 <_printf_i+0x30>
 8003c3a:	2378      	movs	r3, #120	; 0x78
 8003c3c:	4865      	ldr	r0, [pc, #404]	; (8003dd4 <_printf_i+0x220>)
 8003c3e:	f884 3045 	strb.w	r3, [r4, #69]	; 0x45
 8003c42:	e055      	b.n	8003cf0 <_printf_i+0x13c>
 8003c44:	6813      	ldr	r3, [r2, #0]
 8003c46:	f104 0542 	add.w	r5, r4, #66	; 0x42
 8003c4a:	1d19      	adds	r1, r3, #4
 8003c4c:	681b      	ldr	r3, [r3, #0]
 8003c4e:	6011      	str	r1, [r2, #0]
 8003c50:	f884 3042 	strb.w	r3, [r4, #66]	; 0x42
 8003c54:	2301      	movs	r3, #1
 8003c56:	e08c      	b.n	8003d72 <_printf_i+0x1be>
 8003c58:	681b      	ldr	r3, [r3, #0]
 8003c5a:	f010 0f40 	tst.w	r0, #64	; 0x40
 8003c5e:	6011      	str	r1, [r2, #0]
 8003c60:	bf18      	it	ne
 8003c62:	b21b      	sxthne	r3, r3
 8003c64:	e7cf      	b.n	8003c06 <_printf_i+0x52>
 8003c66:	6813      	ldr	r3, [r2, #0]
 8003c68:	6825      	ldr	r5, [r4, #0]
 8003c6a:	1d18      	adds	r0, r3, #4
 8003c6c:	6010      	str	r0, [r2, #0]
 8003c6e:	0628      	lsls	r0, r5, #24
 8003c70:	d501      	bpl.n	8003c76 <_printf_i+0xc2>
 8003c72:	681b      	ldr	r3, [r3, #0]
 8003c74:	e002      	b.n	8003c7c <_printf_i+0xc8>
 8003c76:	0668      	lsls	r0, r5, #25
 8003c78:	d5fb      	bpl.n	8003c72 <_printf_i+0xbe>
 8003c7a:	881b      	ldrh	r3, [r3, #0]
 8003c7c:	296f      	cmp	r1, #111	; 0x6f
 8003c7e:	bf14      	ite	ne
 8003c80:	220a      	movne	r2, #10
 8003c82:	2208      	moveq	r2, #8
 8003c84:	4852      	ldr	r0, [pc, #328]	; (8003dd0 <_printf_i+0x21c>)
 8003c86:	2100      	movs	r1, #0
 8003c88:	f884 1043 	strb.w	r1, [r4, #67]	; 0x43
 8003c8c:	6865      	ldr	r5, [r4, #4]
 8003c8e:	2d00      	cmp	r5, #0
 8003c90:	60a5      	str	r5, [r4, #8]
 8003c92:	f2c0 8095 	blt.w	8003dc0 <_printf_i+0x20c>
 8003c96:	6821      	ldr	r1, [r4, #0]
 8003c98:	f021 0104 	bic.w	r1, r1, #4
 8003c9c:	6021      	str	r1, [r4, #0]
 8003c9e:	2b00      	cmp	r3, #0
 8003ca0:	d13d      	bne.n	8003d1e <_printf_i+0x16a>
 8003ca2:	2d00      	cmp	r5, #0
 8003ca4:	f040 808e 	bne.w	8003dc4 <_printf_i+0x210>
 8003ca8:	4665      	mov	r5, ip
 8003caa:	2a08      	cmp	r2, #8
 8003cac:	d10b      	bne.n	8003cc6 <_printf_i+0x112>
 8003cae:	6823      	ldr	r3, [r4, #0]
 8003cb0:	07db      	lsls	r3, r3, #31
 8003cb2:	d508      	bpl.n	8003cc6 <_printf_i+0x112>
 8003cb4:	6923      	ldr	r3, [r4, #16]
 8003cb6:	6862      	ldr	r2, [r4, #4]
 8003cb8:	429a      	cmp	r2, r3
 8003cba:	bfde      	ittt	le
 8003cbc:	2330      	movle	r3, #48	; 0x30
 8003cbe:	f805 3c01 	strble.w	r3, [r5, #-1]
 8003cc2:	f105 35ff 	addle.w	r5, r5, #4294967295	; 0xffffffff
 8003cc6:	ebac 0305 	sub.w	r3, ip, r5
 8003cca:	6123      	str	r3, [r4, #16]
 8003ccc:	f8cd 8000 	str.w	r8, [sp]
 8003cd0:	463b      	mov	r3, r7
 8003cd2:	aa03      	add	r2, sp, #12
 8003cd4:	4621      	mov	r1, r4
 8003cd6:	4630      	mov	r0, r6
 8003cd8:	f7ff fef6 	bl	8003ac8 <_printf_common>
 8003cdc:	3001      	adds	r0, #1
 8003cde:	d14d      	bne.n	8003d7c <_printf_i+0x1c8>
 8003ce0:	f04f 30ff 	mov.w	r0, #4294967295	; 0xffffffff
 8003ce4:	b005      	add	sp, #20
 8003ce6:	e8bd 83f0 	ldmia.w	sp!, {r4, r5, r6, r7, r8, r9, pc}
 8003cea:	4839      	ldr	r0, [pc, #228]	; (8003dd0 <_printf_i+0x21c>)
 8003cec:	f884 1045 	strb.w	r1, [r4, #69]	; 0x45
 8003cf0:	6813      	ldr	r3, [r2, #0]
 8003cf2:	6821      	ldr	r1, [r4, #0]
 8003cf4:	1d1d      	adds	r5, r3, #4
 8003cf6:	681b      	ldr	r3, [r3, #0]
 8003cf8:	6015      	str	r5, [r2, #0]
 8003cfa:	060a      	lsls	r2, r1, #24
 8003cfc:	d50b      	bpl.n	8003d16 <_printf_i+0x162>
 8003cfe:	07ca      	lsls	r2, r1, #31
 8003d00:	bf44      	itt	mi
 8003d02:	f041 0120 	orrmi.w	r1, r1, #32
 8003d06:	6021      	strmi	r1, [r4, #0]
 8003d08:	b91b      	cbnz	r3, 8003d12 <_printf_i+0x15e>
 8003d0a:	6822      	ldr	r2, [r4, #0]
 8003d0c:	f022 0220 	bic.w	r2, r2, #32
 8003d10:	6022      	str	r2, [r4, #0]
 8003d12:	2210      	movs	r2, #16
 8003d14:	e7b7      	b.n	8003c86 <_printf_i+0xd2>
 8003d16:	064d      	lsls	r5, r1, #25
 8003d18:	bf48      	it	mi
 8003d1a:	b29b      	uxthmi	r3, r3
 8003d1c:	e7ef      	b.n	8003cfe <_printf_i+0x14a>
 8003d1e:	4665      	mov	r5, ip
 8003d20:	fbb3 f1f2 	udiv	r1, r3, r2
 8003d24:	fb02 3311 	mls	r3, r2, r1, r3
 8003d28:	5cc3      	ldrb	r3, [r0, r3]
 8003d2a:	f805 3d01 	strb.w	r3, [r5, #-1]!
 8003d2e:	460b      	mov	r3, r1
 8003d30:	2900      	cmp	r1, #0
 8003d32:	d1f5      	bne.n	8003d20 <_printf_i+0x16c>
 8003d34:	e7b9      	b.n	8003caa <_printf_i+0xf6>
 8003d36:	6813      	ldr	r3, [r2, #0]
 8003d38:	6825      	ldr	r5, [r4, #0]
 8003d3a:	1d18      	adds	r0, r3, #4
 8003d3c:	6961      	ldr	r1, [r4, #20]
 8003d3e:	6010      	str	r0, [r2, #0]
 8003d40:	0628      	lsls	r0, r5, #24
 8003d42:	681b      	ldr	r3, [r3, #0]
 8003d44:	d501      	bpl.n	8003d4a <_printf_i+0x196>
 8003d46:	6019      	str	r1, [r3, #0]
 8003d48:	e002      	b.n	8003d50 <_printf_i+0x19c>
 8003d4a:	066a      	lsls	r2, r5, #25
 8003d4c:	d5fb      	bpl.n	8003d46 <_printf_i+0x192>
 8003d4e:	8019      	strh	r1, [r3, #0]
 8003d50:	2300      	movs	r3, #0
 8003d52:	4665      	mov	r5, ip
 8003d54:	6123      	str	r3, [r4, #16]
 8003d56:	e7b9      	b.n	8003ccc <_printf_i+0x118>
 8003d58:	6813      	ldr	r3, [r2, #0]
 8003d5a:	1d19      	adds	r1, r3, #4
 8003d5c:	6011      	str	r1, [r2, #0]
 8003d5e:	681d      	ldr	r5, [r3, #0]
 8003d60:	6862      	ldr	r2, [r4, #4]
 8003d62:	2100      	movs	r1, #0
 8003d64:	4628      	mov	r0, r5
 8003d66:	f000 fb45 	bl	80043f4 <memchr>
 8003d6a:	b108      	cbz	r0, 8003d70 <_printf_i+0x1bc>
 8003d6c:	1b40      	subs	r0, r0, r5
 8003d6e:	6060      	str	r0, [r4, #4]
 8003d70:	6863      	ldr	r3, [r4, #4]
 8003d72:	6123      	str	r3, [r4, #16]
 8003d74:	2300      	movs	r3, #0
 8003d76:	f884 3043 	strb.w	r3, [r4, #67]	; 0x43
 8003d7a:	e7a7      	b.n	8003ccc <_printf_i+0x118>
 8003d7c:	6923      	ldr	r3, [r4, #16]
 8003d7e:	462a      	mov	r2, r5
 8003d80:	4639      	mov	r1, r7
 8003d82:	4630      	mov	r0, r6
 8003d84:	47c0      	blx	r8
 8003d86:	3001      	adds	r0, #1
 8003d88:	d0aa      	beq.n	8003ce0 <_printf_i+0x12c>
 8003d8a:	6823      	ldr	r3, [r4, #0]
 8003d8c:	079b      	lsls	r3, r3, #30
 8003d8e:	d413      	bmi.n	8003db8 <_printf_i+0x204>
 8003d90:	68e0      	ldr	r0, [r4, #12]
 8003d92:	9b03      	ldr	r3, [sp, #12]
 8003d94:	4298      	cmp	r0, r3
 8003d96:	bfb8      	it	lt
 8003d98:	4618      	movlt	r0, r3
 8003d9a:	e7a3      	b.n	8003ce4 <_printf_i+0x130>
 8003d9c:	2301      	movs	r3, #1
 8003d9e:	464a      	mov	r2, r9
 8003da0:	4639      	mov	r1, r7
 8003da2:	4630      	mov	r0, r6
 8003da4:	47c0      	blx	r8
 8003da6:	3001      	adds	r0, #1
 8003da8:	d09a      	beq.n	8003ce0 <_printf_i+0x12c>
 8003daa:	3501      	adds	r5, #1
 8003dac:	68e3      	ldr	r3, [r4, #12]
 8003dae:	9a03      	ldr	r2, [sp, #12]
 8003db0:	1a9b      	subs	r3, r3, r2
 8003db2:	42ab      	cmp	r3, r5
 8003db4:	dcf2      	bgt.n	8003d9c <_printf_i+0x1e8>
 8003db6:	e7eb      	b.n	8003d90 <_printf_i+0x1dc>
 8003db8:	2500      	movs	r5, #0
 8003dba:	f104 0919 	add.w	r9, r4, #25
 8003dbe:	e7f5      	b.n	8003dac <_printf_i+0x1f8>
 8003dc0:	2b00      	cmp	r3, #0
 8003dc2:	d1ac      	bne.n	8003d1e <_printf_i+0x16a>
 8003dc4:	7803      	ldrb	r3, [r0, #0]
 8003dc6:	f104 0542 	add.w	r5, r4, #66	; 0x42
 8003dca:	f884 3042 	strb.w	r3, [r4, #66]	; 0x42
 8003dce:	e76c      	b.n	8003caa <_printf_i+0xf6>
 8003dd0:	080048b1 	.word	0x080048b1
 8003dd4:	080048c2 	.word	0x080048c2

08003dd8 <_scanf_chars>:
 8003dd8:	e92d 41f0 	stmdb	sp!, {r4, r5, r6, r7, r8, lr}
 8003ddc:	4615      	mov	r5, r2
 8003dde:	688a      	ldr	r2, [r1, #8]
 8003de0:	4680      	mov	r8, r0
 8003de2:	460c      	mov	r4, r1
 8003de4:	b932      	cbnz	r2, 8003df4 <_scanf_chars+0x1c>
 8003de6:	698a      	ldr	r2, [r1, #24]
 8003de8:	2a00      	cmp	r2, #0
 8003dea:	bf14      	ite	ne
 8003dec:	f04f 32ff 	movne.w	r2, #4294967295	; 0xffffffff
 8003df0:	2201      	moveq	r2, #1
 8003df2:	608a      	str	r2, [r1, #8]
 8003df4:	2600      	movs	r6, #0
 8003df6:	6822      	ldr	r2, [r4, #0]
 8003df8:	06d1      	lsls	r1, r2, #27
 8003dfa:	bf5f      	itttt	pl
 8003dfc:	681a      	ldrpl	r2, [r3, #0]
 8003dfe:	1d11      	addpl	r1, r2, #4
 8003e00:	6019      	strpl	r1, [r3, #0]
 8003e02:	6817      	ldrpl	r7, [r2, #0]
 8003e04:	69a3      	ldr	r3, [r4, #24]
 8003e06:	b1db      	cbz	r3, 8003e40 <_scanf_chars+0x68>
 8003e08:	2b01      	cmp	r3, #1
 8003e0a:	d107      	bne.n	8003e1c <_scanf_chars+0x44>
 8003e0c:	682b      	ldr	r3, [r5, #0]
 8003e0e:	6962      	ldr	r2, [r4, #20]
 8003e10:	781b      	ldrb	r3, [r3, #0]
 8003e12:	5cd3      	ldrb	r3, [r2, r3]
 8003e14:	b9a3      	cbnz	r3, 8003e40 <_scanf_chars+0x68>
 8003e16:	2e00      	cmp	r6, #0
 8003e18:	d131      	bne.n	8003e7e <_scanf_chars+0xa6>
 8003e1a:	e006      	b.n	8003e2a <_scanf_chars+0x52>
 8003e1c:	2b02      	cmp	r3, #2
 8003e1e:	d007      	beq.n	8003e30 <_scanf_chars+0x58>
 8003e20:	2e00      	cmp	r6, #0
 8003e22:	d12c      	bne.n	8003e7e <_scanf_chars+0xa6>
 8003e24:	69a3      	ldr	r3, [r4, #24]
 8003e26:	2b01      	cmp	r3, #1
 8003e28:	d129      	bne.n	8003e7e <_scanf_chars+0xa6>
 8003e2a:	2001      	movs	r0, #1
 8003e2c:	e8bd 81f0 	ldmia.w	sp!, {r4, r5, r6, r7, r8, pc}
 8003e30:	f000 fac0 	bl	80043b4 <__locale_ctype_ptr>
 8003e34:	682b      	ldr	r3, [r5, #0]
 8003e36:	781b      	ldrb	r3, [r3, #0]
 8003e38:	4418      	add	r0, r3
 8003e3a:	7843      	ldrb	r3, [r0, #1]
 8003e3c:	071b      	lsls	r3, r3, #28
 8003e3e:	d4ef      	bmi.n	8003e20 <_scanf_chars+0x48>
 8003e40:	6823      	ldr	r3, [r4, #0]
 8003e42:	3601      	adds	r6, #1
 8003e44:	06da      	lsls	r2, r3, #27
 8003e46:	bf5e      	ittt	pl
 8003e48:	682b      	ldrpl	r3, [r5, #0]
 8003e4a:	781b      	ldrbpl	r3, [r3, #0]
 8003e4c:	703b      	strbpl	r3, [r7, #0]
 8003e4e:	682a      	ldr	r2, [r5, #0]
 8003e50:	686b      	ldr	r3, [r5, #4]
 8003e52:	f102 0201 	add.w	r2, r2, #1
 8003e56:	602a      	str	r2, [r5, #0]
 8003e58:	68a2      	ldr	r2, [r4, #8]
 8003e5a:	f103 33ff 	add.w	r3, r3, #4294967295	; 0xffffffff
 8003e5e:	f102 32ff 	add.w	r2, r2, #4294967295	; 0xffffffff
 8003e62:	606b      	str	r3, [r5, #4]
 8003e64:	bf58      	it	pl
 8003e66:	3701      	addpl	r7, #1
 8003e68:	60a2      	str	r2, [r4, #8]
 8003e6a:	b142      	cbz	r2, 8003e7e <_scanf_chars+0xa6>
 8003e6c:	2b00      	cmp	r3, #0
 8003e6e:	dcc9      	bgt.n	8003e04 <_scanf_chars+0x2c>
 8003e70:	f8d4 3180 	ldr.w	r3, [r4, #384]	; 0x180
 8003e74:	4629      	mov	r1, r5
 8003e76:	4640      	mov	r0, r8
 8003e78:	4798      	blx	r3
 8003e7a:	2800      	cmp	r0, #0
 8003e7c:	d0c2      	beq.n	8003e04 <_scanf_chars+0x2c>
 8003e7e:	6823      	ldr	r3, [r4, #0]
 8003e80:	f013 0310 	ands.w	r3, r3, #16
 8003e84:	d105      	bne.n	8003e92 <_scanf_chars+0xba>
 8003e86:	68e2      	ldr	r2, [r4, #12]
 8003e88:	3201      	adds	r2, #1
 8003e8a:	60e2      	str	r2, [r4, #12]
 8003e8c:	69a2      	ldr	r2, [r4, #24]
 8003e8e:	b102      	cbz	r2, 8003e92 <_scanf_chars+0xba>
 8003e90:	703b      	strb	r3, [r7, #0]
 8003e92:	6923      	ldr	r3, [r4, #16]
 8003e94:	2000      	movs	r0, #0
 8003e96:	441e      	add	r6, r3
 8003e98:	6126      	str	r6, [r4, #16]
 8003e9a:	e7c7      	b.n	8003e2c <_scanf_chars+0x54>

08003e9c <_scanf_i>:
 8003e9c:	e92d 4ff0 	stmdb	sp!, {r4, r5, r6, r7, r8, r9, sl, fp, lr}
 8003ea0:	460c      	mov	r4, r1
 8003ea2:	469a      	mov	sl, r3
 8003ea4:	4b74      	ldr	r3, [pc, #464]	; (8004078 <_scanf_i+0x1dc>)
 8003ea6:	b087      	sub	sp, #28
 8003ea8:	4683      	mov	fp, r0
 8003eaa:	4616      	mov	r6, r2
 8003eac:	e893 0007 	ldmia.w	r3, {r0, r1, r2}
 8003eb0:	ab03      	add	r3, sp, #12
 8003eb2:	68a7      	ldr	r7, [r4, #8]
 8003eb4:	e883 0007 	stmia.w	r3, {r0, r1, r2}
 8003eb8:	4b70      	ldr	r3, [pc, #448]	; (800407c <_scanf_i+0x1e0>)
 8003eba:	69a1      	ldr	r1, [r4, #24]
 8003ebc:	4a70      	ldr	r2, [pc, #448]	; (8004080 <_scanf_i+0x1e4>)
 8003ebe:	f104 091c 	add.w	r9, r4, #28
 8003ec2:	2903      	cmp	r1, #3
 8003ec4:	bf08      	it	eq
 8003ec6:	461a      	moveq	r2, r3
 8003ec8:	1e7b      	subs	r3, r7, #1
 8003eca:	f5b3 7fae 	cmp.w	r3, #348	; 0x15c
 8003ece:	bf84      	itt	hi
 8003ed0:	f240 135d 	movwhi	r3, #349	; 0x15d
 8003ed4:	60a3      	strhi	r3, [r4, #8]
 8003ed6:	6823      	ldr	r3, [r4, #0]
 8003ed8:	bf88      	it	hi
 8003eda:	f46f 75ae 	mvnhi.w	r5, #348	; 0x15c
 8003ede:	f443 6350 	orr.w	r3, r3, #3328	; 0xd00
 8003ee2:	6023      	str	r3, [r4, #0]
 8003ee4:	bf98      	it	ls
 8003ee6:	2700      	movls	r7, #0
 8003ee8:	464b      	mov	r3, r9
 8003eea:	f04f 0800 	mov.w	r8, #0
 8003eee:	9200      	str	r2, [sp, #0]
 8003ef0:	bf88      	it	hi
 8003ef2:	197f      	addhi	r7, r7, r5
 8003ef4:	6831      	ldr	r1, [r6, #0]
 8003ef6:	9301      	str	r3, [sp, #4]
 8003ef8:	ab03      	add	r3, sp, #12
 8003efa:	f853 0028 	ldr.w	r0, [r3, r8, lsl #2]
 8003efe:	2202      	movs	r2, #2
 8003f00:	7809      	ldrb	r1, [r1, #0]
 8003f02:	f000 fa77 	bl	80043f4 <memchr>
 8003f06:	9b01      	ldr	r3, [sp, #4]
 8003f08:	b330      	cbz	r0, 8003f58 <_scanf_i+0xbc>
 8003f0a:	f1b8 0f01 	cmp.w	r8, #1
 8003f0e:	d15a      	bne.n	8003fc6 <_scanf_i+0x12a>
 8003f10:	6862      	ldr	r2, [r4, #4]
 8003f12:	b92a      	cbnz	r2, 8003f20 <_scanf_i+0x84>
 8003f14:	2108      	movs	r1, #8
 8003f16:	6822      	ldr	r2, [r4, #0]
 8003f18:	6061      	str	r1, [r4, #4]
 8003f1a:	f442 7200 	orr.w	r2, r2, #512	; 0x200
 8003f1e:	6022      	str	r2, [r4, #0]
 8003f20:	6822      	ldr	r2, [r4, #0]
 8003f22:	f422 62a0 	bic.w	r2, r2, #1280	; 0x500
 8003f26:	6022      	str	r2, [r4, #0]
 8003f28:	68a2      	ldr	r2, [r4, #8]
 8003f2a:	1e51      	subs	r1, r2, #1
 8003f2c:	60a1      	str	r1, [r4, #8]
 8003f2e:	b19a      	cbz	r2, 8003f58 <_scanf_i+0xbc>
 8003f30:	6832      	ldr	r2, [r6, #0]
 8003f32:	1c5d      	adds	r5, r3, #1
 8003f34:	1c51      	adds	r1, r2, #1
 8003f36:	6031      	str	r1, [r6, #0]
 8003f38:	7812      	ldrb	r2, [r2, #0]
 8003f3a:	701a      	strb	r2, [r3, #0]
 8003f3c:	6873      	ldr	r3, [r6, #4]
 8003f3e:	3b01      	subs	r3, #1
 8003f40:	2b00      	cmp	r3, #0
 8003f42:	6073      	str	r3, [r6, #4]
 8003f44:	dc07      	bgt.n	8003f56 <_scanf_i+0xba>
 8003f46:	f8d4 3180 	ldr.w	r3, [r4, #384]	; 0x180
 8003f4a:	4631      	mov	r1, r6
 8003f4c:	4658      	mov	r0, fp
 8003f4e:	4798      	blx	r3
 8003f50:	2800      	cmp	r0, #0
 8003f52:	f040 8087 	bne.w	8004064 <_scanf_i+0x1c8>
 8003f56:	462b      	mov	r3, r5
 8003f58:	f108 0801 	add.w	r8, r8, #1
 8003f5c:	f1b8 0f03 	cmp.w	r8, #3
 8003f60:	d1c8      	bne.n	8003ef4 <_scanf_i+0x58>
 8003f62:	6862      	ldr	r2, [r4, #4]
 8003f64:	b90a      	cbnz	r2, 8003f6a <_scanf_i+0xce>
 8003f66:	220a      	movs	r2, #10
 8003f68:	6062      	str	r2, [r4, #4]
 8003f6a:	6862      	ldr	r2, [r4, #4]
 8003f6c:	4945      	ldr	r1, [pc, #276]	; (8004084 <_scanf_i+0x1e8>)
 8003f6e:	6960      	ldr	r0, [r4, #20]
 8003f70:	1a89      	subs	r1, r1, r2
 8003f72:	9301      	str	r3, [sp, #4]
 8003f74:	f000 f898 	bl	80040a8 <__sccl>
 8003f78:	9b01      	ldr	r3, [sp, #4]
 8003f7a:	f04f 0800 	mov.w	r8, #0
 8003f7e:	461d      	mov	r5, r3
 8003f80:	68a3      	ldr	r3, [r4, #8]
 8003f82:	6822      	ldr	r2, [r4, #0]
 8003f84:	2b00      	cmp	r3, #0
 8003f86:	d03b      	beq.n	8004000 <_scanf_i+0x164>
 8003f88:	6831      	ldr	r1, [r6, #0]
 8003f8a:	6960      	ldr	r0, [r4, #20]
 8003f8c:	f891 c000 	ldrb.w	ip, [r1]
 8003f90:	f810 000c 	ldrb.w	r0, [r0, ip]
 8003f94:	2800      	cmp	r0, #0
 8003f96:	d033      	beq.n	8004000 <_scanf_i+0x164>
 8003f98:	f1bc 0f30 	cmp.w	ip, #48	; 0x30
 8003f9c:	d121      	bne.n	8003fe2 <_scanf_i+0x146>
 8003f9e:	0510      	lsls	r0, r2, #20
 8003fa0:	d51f      	bpl.n	8003fe2 <_scanf_i+0x146>
 8003fa2:	f108 0801 	add.w	r8, r8, #1
 8003fa6:	b117      	cbz	r7, 8003fae <_scanf_i+0x112>
 8003fa8:	3301      	adds	r3, #1
 8003faa:	3f01      	subs	r7, #1
 8003fac:	60a3      	str	r3, [r4, #8]
 8003fae:	6873      	ldr	r3, [r6, #4]
 8003fb0:	3b01      	subs	r3, #1
 8003fb2:	2b00      	cmp	r3, #0
 8003fb4:	6073      	str	r3, [r6, #4]
 8003fb6:	dd1c      	ble.n	8003ff2 <_scanf_i+0x156>
 8003fb8:	6833      	ldr	r3, [r6, #0]
 8003fba:	3301      	adds	r3, #1
 8003fbc:	6033      	str	r3, [r6, #0]
 8003fbe:	68a3      	ldr	r3, [r4, #8]
 8003fc0:	3b01      	subs	r3, #1
 8003fc2:	60a3      	str	r3, [r4, #8]
 8003fc4:	e7dc      	b.n	8003f80 <_scanf_i+0xe4>
 8003fc6:	f1b8 0f02 	cmp.w	r8, #2
 8003fca:	d1ad      	bne.n	8003f28 <_scanf_i+0x8c>
 8003fcc:	6822      	ldr	r2, [r4, #0]
 8003fce:	f402 61c0 	and.w	r1, r2, #1536	; 0x600
 8003fd2:	f5b1 7f00 	cmp.w	r1, #512	; 0x200
 8003fd6:	d1bf      	bne.n	8003f58 <_scanf_i+0xbc>
 8003fd8:	2110      	movs	r1, #16
 8003fda:	f442 7280 	orr.w	r2, r2, #256	; 0x100
 8003fde:	6061      	str	r1, [r4, #4]
 8003fe0:	e7a1      	b.n	8003f26 <_scanf_i+0x8a>
 8003fe2:	f422 6210 	bic.w	r2, r2, #2304	; 0x900
 8003fe6:	6022      	str	r2, [r4, #0]
 8003fe8:	780b      	ldrb	r3, [r1, #0]
 8003fea:	3501      	adds	r5, #1
 8003fec:	f805 3c01 	strb.w	r3, [r5, #-1]
 8003ff0:	e7dd      	b.n	8003fae <_scanf_i+0x112>
 8003ff2:	f8d4 3180 	ldr.w	r3, [r4, #384]	; 0x180
 8003ff6:	4631      	mov	r1, r6
 8003ff8:	4658      	mov	r0, fp
 8003ffa:	4798      	blx	r3
 8003ffc:	2800      	cmp	r0, #0
 8003ffe:	d0de      	beq.n	8003fbe <_scanf_i+0x122>
 8004000:	6823      	ldr	r3, [r4, #0]
 8004002:	05d9      	lsls	r1, r3, #23
 8004004:	d50c      	bpl.n	8004020 <_scanf_i+0x184>
 8004006:	454d      	cmp	r5, r9
 8004008:	d908      	bls.n	800401c <_scanf_i+0x180>
 800400a:	f815 1c01 	ldrb.w	r1, [r5, #-1]
 800400e:	1e6f      	subs	r7, r5, #1
 8004010:	f8d4 317c 	ldr.w	r3, [r4, #380]	; 0x17c
 8004014:	4632      	mov	r2, r6
 8004016:	4658      	mov	r0, fp
 8004018:	4798      	blx	r3
 800401a:	463d      	mov	r5, r7
 800401c:	454d      	cmp	r5, r9
 800401e:	d029      	beq.n	8004074 <_scanf_i+0x1d8>
 8004020:	6822      	ldr	r2, [r4, #0]
 8004022:	f012 0210 	ands.w	r2, r2, #16
 8004026:	d113      	bne.n	8004050 <_scanf_i+0x1b4>
 8004028:	702a      	strb	r2, [r5, #0]
 800402a:	6863      	ldr	r3, [r4, #4]
 800402c:	4649      	mov	r1, r9
 800402e:	4658      	mov	r0, fp
 8004030:	9e00      	ldr	r6, [sp, #0]
 8004032:	47b0      	blx	r6
 8004034:	f8da 3000 	ldr.w	r3, [sl]
 8004038:	6821      	ldr	r1, [r4, #0]
 800403a:	1d1a      	adds	r2, r3, #4
 800403c:	f8ca 2000 	str.w	r2, [sl]
 8004040:	f011 0f20 	tst.w	r1, #32
 8004044:	681b      	ldr	r3, [r3, #0]
 8004046:	d010      	beq.n	800406a <_scanf_i+0x1ce>
 8004048:	6018      	str	r0, [r3, #0]
 800404a:	68e3      	ldr	r3, [r4, #12]
 800404c:	3301      	adds	r3, #1
 800404e:	60e3      	str	r3, [r4, #12]
 8004050:	2000      	movs	r0, #0
 8004052:	eba5 0509 	sub.w	r5, r5, r9
 8004056:	44a8      	add	r8, r5
 8004058:	6925      	ldr	r5, [r4, #16]
 800405a:	4445      	add	r5, r8
 800405c:	6125      	str	r5, [r4, #16]
 800405e:	b007      	add	sp, #28
 8004060:	e8bd 8ff0 	ldmia.w	sp!, {r4, r5, r6, r7, r8, r9, sl, fp, pc}
 8004064:	f04f 0800 	mov.w	r8, #0
 8004068:	e7ca      	b.n	8004000 <_scanf_i+0x164>
 800406a:	07ca      	lsls	r2, r1, #31
 800406c:	bf4c      	ite	mi
 800406e:	8018      	strhmi	r0, [r3, #0]
 8004070:	6018      	strpl	r0, [r3, #0]
 8004072:	e7ea      	b.n	800404a <_scanf_i+0x1ae>
 8004074:	2001      	movs	r0, #1
 8004076:	e7f2      	b.n	800405e <_scanf_i+0x1c2>
 8004078:	080044e4 	.word	0x080044e4
 800407c:	08004201 	.word	0x08004201
 8004080:	08004319 	.word	0x08004319
 8004084:	080048e3 	.word	0x080048e3

08004088 <_sbrk_r>:
 8004088:	b538      	push	{r3, r4, r5, lr}
 800408a:	2300      	movs	r3, #0
 800408c:	4c05      	ldr	r4, [pc, #20]	; (80040a4 <_sbrk_r+0x1c>)
 800408e:	4605      	mov	r5, r0
 8004090:	4608      	mov	r0, r1
 8004092:	6023      	str	r3, [r4, #0]
 8004094:	f7fd fa56 	bl	8001544 <_sbrk>
 8004098:	1c43      	adds	r3, r0, #1
 800409a:	d102      	bne.n	80040a2 <_sbrk_r+0x1a>
 800409c:	6823      	ldr	r3, [r4, #0]
 800409e:	b103      	cbz	r3, 80040a2 <_sbrk_r+0x1a>
 80040a0:	602b      	str	r3, [r5, #0]
 80040a2:	bd38      	pop	{r3, r4, r5, pc}
 80040a4:	200029e0 	.word	0x200029e0

080040a8 <__sccl>:
 80040a8:	b570      	push	{r4, r5, r6, lr}
 80040aa:	780b      	ldrb	r3, [r1, #0]
 80040ac:	1e44      	subs	r4, r0, #1
 80040ae:	2b5e      	cmp	r3, #94	; 0x5e
 80040b0:	bf13      	iteet	ne
 80040b2:	1c4a      	addne	r2, r1, #1
 80040b4:	1c8a      	addeq	r2, r1, #2
 80040b6:	784b      	ldrbeq	r3, [r1, #1]
 80040b8:	2100      	movne	r1, #0
 80040ba:	bf08      	it	eq
 80040bc:	2101      	moveq	r1, #1
 80040be:	f100 05ff 	add.w	r5, r0, #255	; 0xff
 80040c2:	f804 1f01 	strb.w	r1, [r4, #1]!
 80040c6:	42ac      	cmp	r4, r5
 80040c8:	d1fb      	bne.n	80040c2 <__sccl+0x1a>
 80040ca:	b913      	cbnz	r3, 80040d2 <__sccl+0x2a>
 80040cc:	3a01      	subs	r2, #1
 80040ce:	4610      	mov	r0, r2
 80040d0:	bd70      	pop	{r4, r5, r6, pc}
 80040d2:	f081 0401 	eor.w	r4, r1, #1
 80040d6:	54c4      	strb	r4, [r0, r3]
 80040d8:	1c51      	adds	r1, r2, #1
 80040da:	f811 5c01 	ldrb.w	r5, [r1, #-1]
 80040de:	1e4e      	subs	r6, r1, #1
 80040e0:	2d2d      	cmp	r5, #45	; 0x2d
 80040e2:	460a      	mov	r2, r1
 80040e4:	d006      	beq.n	80040f4 <__sccl+0x4c>
 80040e6:	2d5d      	cmp	r5, #93	; 0x5d
 80040e8:	d0f1      	beq.n	80040ce <__sccl+0x26>
 80040ea:	b90d      	cbnz	r5, 80040f0 <__sccl+0x48>
 80040ec:	4632      	mov	r2, r6
 80040ee:	e7ee      	b.n	80040ce <__sccl+0x26>
 80040f0:	462b      	mov	r3, r5
 80040f2:	e7f0      	b.n	80040d6 <__sccl+0x2e>
 80040f4:	780e      	ldrb	r6, [r1, #0]
 80040f6:	2e5d      	cmp	r6, #93	; 0x5d
 80040f8:	d0fa      	beq.n	80040f0 <__sccl+0x48>
 80040fa:	42b3      	cmp	r3, r6
 80040fc:	dcf8      	bgt.n	80040f0 <__sccl+0x48>
 80040fe:	3301      	adds	r3, #1
 8004100:	429e      	cmp	r6, r3
 8004102:	54c4      	strb	r4, [r0, r3]
 8004104:	dcfb      	bgt.n	80040fe <__sccl+0x56>
 8004106:	3102      	adds	r1, #2
 8004108:	e7e7      	b.n	80040da <__sccl+0x32>

0800410a <_strtol_l.isra.0>:
 800410a:	e92d 47f0 	stmdb	sp!, {r4, r5, r6, r7, r8, r9, sl, lr}
 800410e:	4680      	mov	r8, r0
 8004110:	4689      	mov	r9, r1
 8004112:	4692      	mov	sl, r2
 8004114:	461e      	mov	r6, r3
 8004116:	460f      	mov	r7, r1
 8004118:	463d      	mov	r5, r7
 800411a:	9808      	ldr	r0, [sp, #32]
 800411c:	f815 4b01 	ldrb.w	r4, [r5], #1
 8004120:	f000 f944 	bl	80043ac <__locale_ctype_ptr_l>
 8004124:	4420      	add	r0, r4
 8004126:	7843      	ldrb	r3, [r0, #1]
 8004128:	f013 0308 	ands.w	r3, r3, #8
 800412c:	d132      	bne.n	8004194 <_strtol_l.isra.0+0x8a>
 800412e:	2c2d      	cmp	r4, #45	; 0x2d
 8004130:	d132      	bne.n	8004198 <_strtol_l.isra.0+0x8e>
 8004132:	2201      	movs	r2, #1
 8004134:	787c      	ldrb	r4, [r7, #1]
 8004136:	1cbd      	adds	r5, r7, #2
 8004138:	2e00      	cmp	r6, #0
 800413a:	d05d      	beq.n	80041f8 <_strtol_l.isra.0+0xee>
 800413c:	2e10      	cmp	r6, #16
 800413e:	d109      	bne.n	8004154 <_strtol_l.isra.0+0x4a>
 8004140:	2c30      	cmp	r4, #48	; 0x30
 8004142:	d107      	bne.n	8004154 <_strtol_l.isra.0+0x4a>
 8004144:	782b      	ldrb	r3, [r5, #0]
 8004146:	f003 03df 	and.w	r3, r3, #223	; 0xdf
 800414a:	2b58      	cmp	r3, #88	; 0x58
 800414c:	d14f      	bne.n	80041ee <_strtol_l.isra.0+0xe4>
 800414e:	2610      	movs	r6, #16
 8004150:	786c      	ldrb	r4, [r5, #1]
 8004152:	3502      	adds	r5, #2
 8004154:	2a00      	cmp	r2, #0
 8004156:	bf14      	ite	ne
 8004158:	f04f 4100 	movne.w	r1, #2147483648	; 0x80000000
 800415c:	f06f 4100 	mvneq.w	r1, #2147483648	; 0x80000000
 8004160:	2700      	movs	r7, #0
 8004162:	fbb1 fcf6 	udiv	ip, r1, r6
 8004166:	4638      	mov	r0, r7
 8004168:	fb06 1e1c 	mls	lr, r6, ip, r1
 800416c:	f1a4 0330 	sub.w	r3, r4, #48	; 0x30
 8004170:	2b09      	cmp	r3, #9
 8004172:	d817      	bhi.n	80041a4 <_strtol_l.isra.0+0x9a>
 8004174:	461c      	mov	r4, r3
 8004176:	42a6      	cmp	r6, r4
 8004178:	dd23      	ble.n	80041c2 <_strtol_l.isra.0+0xb8>
 800417a:	1c7b      	adds	r3, r7, #1
 800417c:	d007      	beq.n	800418e <_strtol_l.isra.0+0x84>
 800417e:	4584      	cmp	ip, r0
 8004180:	d31c      	bcc.n	80041bc <_strtol_l.isra.0+0xb2>
 8004182:	d101      	bne.n	8004188 <_strtol_l.isra.0+0x7e>
 8004184:	45a6      	cmp	lr, r4
 8004186:	db19      	blt.n	80041bc <_strtol_l.isra.0+0xb2>
 8004188:	2701      	movs	r7, #1
 800418a:	fb00 4006 	mla	r0, r0, r6, r4
 800418e:	f815 4b01 	ldrb.w	r4, [r5], #1
 8004192:	e7eb      	b.n	800416c <_strtol_l.isra.0+0x62>
 8004194:	462f      	mov	r7, r5
 8004196:	e7bf      	b.n	8004118 <_strtol_l.isra.0+0xe>
 8004198:	2c2b      	cmp	r4, #43	; 0x2b
 800419a:	bf04      	itt	eq
 800419c:	1cbd      	addeq	r5, r7, #2
 800419e:	787c      	ldrbeq	r4, [r7, #1]
 80041a0:	461a      	mov	r2, r3
 80041a2:	e7c9      	b.n	8004138 <_strtol_l.isra.0+0x2e>
 80041a4:	f1a4 0341 	sub.w	r3, r4, #65	; 0x41
 80041a8:	2b19      	cmp	r3, #25
 80041aa:	d801      	bhi.n	80041b0 <_strtol_l.isra.0+0xa6>
 80041ac:	3c37      	subs	r4, #55	; 0x37
 80041ae:	e7e2      	b.n	8004176 <_strtol_l.isra.0+0x6c>
 80041b0:	f1a4 0361 	sub.w	r3, r4, #97	; 0x61
 80041b4:	2b19      	cmp	r3, #25
 80041b6:	d804      	bhi.n	80041c2 <_strtol_l.isra.0+0xb8>
 80041b8:	3c57      	subs	r4, #87	; 0x57
 80041ba:	e7dc      	b.n	8004176 <_strtol_l.isra.0+0x6c>
 80041bc:	f04f 37ff 	mov.w	r7, #4294967295	; 0xffffffff
 80041c0:	e7e5      	b.n	800418e <_strtol_l.isra.0+0x84>
 80041c2:	1c7b      	adds	r3, r7, #1
 80041c4:	d108      	bne.n	80041d8 <_strtol_l.isra.0+0xce>
 80041c6:	2322      	movs	r3, #34	; 0x22
 80041c8:	4608      	mov	r0, r1
 80041ca:	f8c8 3000 	str.w	r3, [r8]
 80041ce:	f1ba 0f00 	cmp.w	sl, #0
 80041d2:	d107      	bne.n	80041e4 <_strtol_l.isra.0+0xda>
 80041d4:	e8bd 87f0 	ldmia.w	sp!, {r4, r5, r6, r7, r8, r9, sl, pc}
 80041d8:	b102      	cbz	r2, 80041dc <_strtol_l.isra.0+0xd2>
 80041da:	4240      	negs	r0, r0
 80041dc:	f1ba 0f00 	cmp.w	sl, #0
 80041e0:	d0f8      	beq.n	80041d4 <_strtol_l.isra.0+0xca>
 80041e2:	b10f      	cbz	r7, 80041e8 <_strtol_l.isra.0+0xde>
 80041e4:	f105 39ff 	add.w	r9, r5, #4294967295	; 0xffffffff
 80041e8:	f8ca 9000 	str.w	r9, [sl]
 80041ec:	e7f2      	b.n	80041d4 <_strtol_l.isra.0+0xca>
 80041ee:	2430      	movs	r4, #48	; 0x30
 80041f0:	2e00      	cmp	r6, #0
 80041f2:	d1af      	bne.n	8004154 <_strtol_l.isra.0+0x4a>
 80041f4:	2608      	movs	r6, #8
 80041f6:	e7ad      	b.n	8004154 <_strtol_l.isra.0+0x4a>
 80041f8:	2c30      	cmp	r4, #48	; 0x30
 80041fa:	d0a3      	beq.n	8004144 <_strtol_l.isra.0+0x3a>
 80041fc:	260a      	movs	r6, #10
 80041fe:	e7a9      	b.n	8004154 <_strtol_l.isra.0+0x4a>

08004200 <_strtol_r>:
 8004200:	b537      	push	{r0, r1, r2, r4, r5, lr}
 8004202:	4c06      	ldr	r4, [pc, #24]	; (800421c <_strtol_r+0x1c>)
 8004204:	4d06      	ldr	r5, [pc, #24]	; (8004220 <_strtol_r+0x20>)
 8004206:	6824      	ldr	r4, [r4, #0]
 8004208:	6a24      	ldr	r4, [r4, #32]
 800420a:	2c00      	cmp	r4, #0
 800420c:	bf08      	it	eq
 800420e:	462c      	moveq	r4, r5
 8004210:	9400      	str	r4, [sp, #0]
 8004212:	f7ff ff7a 	bl	800410a <_strtol_l.isra.0>
 8004216:	b003      	add	sp, #12
 8004218:	bd30      	pop	{r4, r5, pc}
 800421a:	bf00      	nop
 800421c:	20000014 	.word	0x20000014
 8004220:	20000078 	.word	0x20000078

08004224 <_strtoul_l.isra.0>:
 8004224:	e92d 47f0 	stmdb	sp!, {r4, r5, r6, r7, r8, r9, sl, lr}
 8004228:	4680      	mov	r8, r0
 800422a:	4689      	mov	r9, r1
 800422c:	4692      	mov	sl, r2
 800422e:	461e      	mov	r6, r3
 8004230:	460f      	mov	r7, r1
 8004232:	463d      	mov	r5, r7
 8004234:	9808      	ldr	r0, [sp, #32]
 8004236:	f815 4b01 	ldrb.w	r4, [r5], #1
 800423a:	f000 f8b7 	bl	80043ac <__locale_ctype_ptr_l>
 800423e:	4420      	add	r0, r4
 8004240:	7843      	ldrb	r3, [r0, #1]
 8004242:	f013 0308 	ands.w	r3, r3, #8
 8004246:	d130      	bne.n	80042aa <_strtoul_l.isra.0+0x86>
 8004248:	2c2d      	cmp	r4, #45	; 0x2d
 800424a:	d130      	bne.n	80042ae <_strtoul_l.isra.0+0x8a>
 800424c:	2101      	movs	r1, #1
 800424e:	787c      	ldrb	r4, [r7, #1]
 8004250:	1cbd      	adds	r5, r7, #2
 8004252:	2e00      	cmp	r6, #0
 8004254:	d05c      	beq.n	8004310 <_strtoul_l.isra.0+0xec>
 8004256:	2e10      	cmp	r6, #16
 8004258:	d109      	bne.n	800426e <_strtoul_l.isra.0+0x4a>
 800425a:	2c30      	cmp	r4, #48	; 0x30
 800425c:	d107      	bne.n	800426e <_strtoul_l.isra.0+0x4a>
 800425e:	782b      	ldrb	r3, [r5, #0]
 8004260:	f003 03df 	and.w	r3, r3, #223	; 0xdf
 8004264:	2b58      	cmp	r3, #88	; 0x58
 8004266:	d14e      	bne.n	8004306 <_strtoul_l.isra.0+0xe2>
 8004268:	2610      	movs	r6, #16
 800426a:	786c      	ldrb	r4, [r5, #1]
 800426c:	3502      	adds	r5, #2
 800426e:	f04f 32ff 	mov.w	r2, #4294967295	; 0xffffffff
 8004272:	fbb2 f2f6 	udiv	r2, r2, r6
 8004276:	2300      	movs	r3, #0
 8004278:	fb06 fc02 	mul.w	ip, r6, r2
 800427c:	4618      	mov	r0, r3
 800427e:	ea6f 0c0c 	mvn.w	ip, ip
 8004282:	f1a4 0730 	sub.w	r7, r4, #48	; 0x30
 8004286:	2f09      	cmp	r7, #9
 8004288:	d817      	bhi.n	80042ba <_strtoul_l.isra.0+0x96>
 800428a:	463c      	mov	r4, r7
 800428c:	42a6      	cmp	r6, r4
 800428e:	dd23      	ble.n	80042d8 <_strtoul_l.isra.0+0xb4>
 8004290:	2b00      	cmp	r3, #0
 8004292:	db1e      	blt.n	80042d2 <_strtoul_l.isra.0+0xae>
 8004294:	4282      	cmp	r2, r0
 8004296:	d31c      	bcc.n	80042d2 <_strtoul_l.isra.0+0xae>
 8004298:	d101      	bne.n	800429e <_strtoul_l.isra.0+0x7a>
 800429a:	45a4      	cmp	ip, r4
 800429c:	db19      	blt.n	80042d2 <_strtoul_l.isra.0+0xae>
 800429e:	2301      	movs	r3, #1
 80042a0:	fb00 4006 	mla	r0, r0, r6, r4
 80042a4:	f815 4b01 	ldrb.w	r4, [r5], #1
 80042a8:	e7eb      	b.n	8004282 <_strtoul_l.isra.0+0x5e>
 80042aa:	462f      	mov	r7, r5
 80042ac:	e7c1      	b.n	8004232 <_strtoul_l.isra.0+0xe>
 80042ae:	2c2b      	cmp	r4, #43	; 0x2b
 80042b0:	bf04      	itt	eq
 80042b2:	1cbd      	addeq	r5, r7, #2
 80042b4:	787c      	ldrbeq	r4, [r7, #1]
 80042b6:	4619      	mov	r1, r3
 80042b8:	e7cb      	b.n	8004252 <_strtoul_l.isra.0+0x2e>
 80042ba:	f1a4 0741 	sub.w	r7, r4, #65	; 0x41
 80042be:	2f19      	cmp	r7, #25
 80042c0:	d801      	bhi.n	80042c6 <_strtoul_l.isra.0+0xa2>
 80042c2:	3c37      	subs	r4, #55	; 0x37
 80042c4:	e7e2      	b.n	800428c <_strtoul_l.isra.0+0x68>
 80042c6:	f1a4 0761 	sub.w	r7, r4, #97	; 0x61
 80042ca:	2f19      	cmp	r7, #25
 80042cc:	d804      	bhi.n	80042d8 <_strtoul_l.isra.0+0xb4>
 80042ce:	3c57      	subs	r4, #87	; 0x57
 80042d0:	e7dc      	b.n	800428c <_strtoul_l.isra.0+0x68>
 80042d2:	f04f 33ff 	mov.w	r3, #4294967295	; 0xffffffff
 80042d6:	e7e5      	b.n	80042a4 <_strtoul_l.isra.0+0x80>
 80042d8:	2b00      	cmp	r3, #0
 80042da:	da09      	bge.n	80042f0 <_strtoul_l.isra.0+0xcc>
 80042dc:	2322      	movs	r3, #34	; 0x22
 80042de:	f04f 30ff 	mov.w	r0, #4294967295	; 0xffffffff
 80042e2:	f8c8 3000 	str.w	r3, [r8]
 80042e6:	f1ba 0f00 	cmp.w	sl, #0
 80042ea:	d107      	bne.n	80042fc <_strtoul_l.isra.0+0xd8>
 80042ec:	e8bd 87f0 	ldmia.w	sp!, {r4, r5, r6, r7, r8, r9, sl, pc}
 80042f0:	b101      	cbz	r1, 80042f4 <_strtoul_l.isra.0+0xd0>
 80042f2:	4240      	negs	r0, r0
 80042f4:	f1ba 0f00 	cmp.w	sl, #0
 80042f8:	d0f8      	beq.n	80042ec <_strtoul_l.isra.0+0xc8>
 80042fa:	b10b      	cbz	r3, 8004300 <_strtoul_l.isra.0+0xdc>
 80042fc:	f105 39ff 	add.w	r9, r5, #4294967295	; 0xffffffff
 8004300:	f8ca 9000 	str.w	r9, [sl]
 8004304:	e7f2      	b.n	80042ec <_strtoul_l.isra.0+0xc8>
 8004306:	2430      	movs	r4, #48	; 0x30
 8004308:	2e00      	cmp	r6, #0
 800430a:	d1b0      	bne.n	800426e <_strtoul_l.isra.0+0x4a>
 800430c:	2608      	movs	r6, #8
 800430e:	e7ae      	b.n	800426e <_strtoul_l.isra.0+0x4a>
 8004310:	2c30      	cmp	r4, #48	; 0x30
 8004312:	d0a4      	beq.n	800425e <_strtoul_l.isra.0+0x3a>
 8004314:	260a      	movs	r6, #10
 8004316:	e7aa      	b.n	800426e <_strtoul_l.isra.0+0x4a>

08004318 <_strtoul_r>:
 8004318:	b537      	push	{r0, r1, r2, r4, r5, lr}
 800431a:	4c06      	ldr	r4, [pc, #24]	; (8004334 <_strtoul_r+0x1c>)
 800431c:	4d06      	ldr	r5, [pc, #24]	; (8004338 <_strtoul_r+0x20>)
 800431e:	6824      	ldr	r4, [r4, #0]
 8004320:	6a24      	ldr	r4, [r4, #32]
 8004322:	2c00      	cmp	r4, #0
 8004324:	bf08      	it	eq
 8004326:	462c      	moveq	r4, r5
 8004328:	9400      	str	r4, [sp, #0]
 800432a:	f7ff ff7b 	bl	8004224 <_strtoul_l.isra.0>
 800432e:	b003      	add	sp, #12
 8004330:	bd30      	pop	{r4, r5, pc}
 8004332:	bf00      	nop
 8004334:	20000014 	.word	0x20000014
 8004338:	20000078 	.word	0x20000078

0800433c <__submore>:
 800433c:	e92d 41f0 	stmdb	sp!, {r4, r5, r6, r7, r8, lr}
 8004340:	460c      	mov	r4, r1
 8004342:	6b49      	ldr	r1, [r1, #52]	; 0x34
 8004344:	f104 0344 	add.w	r3, r4, #68	; 0x44
 8004348:	4299      	cmp	r1, r3
 800434a:	d11b      	bne.n	8004384 <__submore+0x48>
 800434c:	f44f 6180 	mov.w	r1, #1024	; 0x400
 8004350:	f7ff f864 	bl	800341c <_malloc_r>
 8004354:	b918      	cbnz	r0, 800435e <__submore+0x22>
 8004356:	f04f 30ff 	mov.w	r0, #4294967295	; 0xffffffff
 800435a:	e8bd 81f0 	ldmia.w	sp!, {r4, r5, r6, r7, r8, pc}
 800435e:	f44f 6380 	mov.w	r3, #1024	; 0x400
 8004362:	63a3      	str	r3, [r4, #56]	; 0x38
 8004364:	f894 3046 	ldrb.w	r3, [r4, #70]	; 0x46
 8004368:	6360      	str	r0, [r4, #52]	; 0x34
 800436a:	f880 33ff 	strb.w	r3, [r0, #1023]	; 0x3ff
 800436e:	f894 3045 	ldrb.w	r3, [r4, #69]	; 0x45
 8004372:	f200 30fd 	addw	r0, r0, #1021	; 0x3fd
 8004376:	7043      	strb	r3, [r0, #1]
 8004378:	f894 3044 	ldrb.w	r3, [r4, #68]	; 0x44
 800437c:	7003      	strb	r3, [r0, #0]
 800437e:	6020      	str	r0, [r4, #0]
 8004380:	2000      	movs	r0, #0
 8004382:	e7ea      	b.n	800435a <__submore+0x1e>
 8004384:	6ba6      	ldr	r6, [r4, #56]	; 0x38
 8004386:	0077      	lsls	r7, r6, #1
 8004388:	463a      	mov	r2, r7
 800438a:	f000 f85c 	bl	8004446 <_realloc_r>
 800438e:	4605      	mov	r5, r0
 8004390:	2800      	cmp	r0, #0
 8004392:	d0e0      	beq.n	8004356 <__submore+0x1a>
 8004394:	eb00 0806 	add.w	r8, r0, r6
 8004398:	4601      	mov	r1, r0
 800439a:	4632      	mov	r2, r6
 800439c:	4640      	mov	r0, r8
 800439e:	f7fe ff05 	bl	80031ac <memcpy>
 80043a2:	f8c4 8000 	str.w	r8, [r4]
 80043a6:	e9c4 570d 	strd	r5, r7, [r4, #52]	; 0x34
 80043aa:	e7e9      	b.n	8004380 <__submore+0x44>

080043ac <__locale_ctype_ptr_l>:
 80043ac:	f8d0 00ec 	ldr.w	r0, [r0, #236]	; 0xec
 80043b0:	4770      	bx	lr
	...

080043b4 <__locale_ctype_ptr>:
 80043b4:	4b04      	ldr	r3, [pc, #16]	; (80043c8 <__locale_ctype_ptr+0x14>)
 80043b6:	4a05      	ldr	r2, [pc, #20]	; (80043cc <__locale_ctype_ptr+0x18>)
 80043b8:	681b      	ldr	r3, [r3, #0]
 80043ba:	6a1b      	ldr	r3, [r3, #32]
 80043bc:	2b00      	cmp	r3, #0
 80043be:	bf08      	it	eq
 80043c0:	4613      	moveq	r3, r2
 80043c2:	f8d3 00ec 	ldr.w	r0, [r3, #236]	; 0xec
 80043c6:	4770      	bx	lr
 80043c8:	20000014 	.word	0x20000014
 80043cc:	20000078 	.word	0x20000078

080043d0 <__ascii_mbtowc>:
 80043d0:	b082      	sub	sp, #8
 80043d2:	b901      	cbnz	r1, 80043d6 <__ascii_mbtowc+0x6>
 80043d4:	a901      	add	r1, sp, #4
 80043d6:	b142      	cbz	r2, 80043ea <__ascii_mbtowc+0x1a>
 80043d8:	b14b      	cbz	r3, 80043ee <__ascii_mbtowc+0x1e>
 80043da:	7813      	ldrb	r3, [r2, #0]
 80043dc:	600b      	str	r3, [r1, #0]
 80043de:	7812      	ldrb	r2, [r2, #0]
 80043e0:	1c10      	adds	r0, r2, #0
 80043e2:	bf18      	it	ne
 80043e4:	2001      	movne	r0, #1
 80043e6:	b002      	add	sp, #8
 80043e8:	4770      	bx	lr
 80043ea:	4610      	mov	r0, r2
 80043ec:	e7fb      	b.n	80043e6 <__ascii_mbtowc+0x16>
 80043ee:	f06f 0001 	mvn.w	r0, #1
 80043f2:	e7f8      	b.n	80043e6 <__ascii_mbtowc+0x16>

080043f4 <memchr>:
 80043f4:	b510      	push	{r4, lr}
 80043f6:	b2c9      	uxtb	r1, r1
 80043f8:	4402      	add	r2, r0
 80043fa:	4290      	cmp	r0, r2
 80043fc:	4603      	mov	r3, r0
 80043fe:	d101      	bne.n	8004404 <memchr+0x10>
 8004400:	2300      	movs	r3, #0
 8004402:	e003      	b.n	800440c <memchr+0x18>
 8004404:	781c      	ldrb	r4, [r3, #0]
 8004406:	3001      	adds	r0, #1
 8004408:	428c      	cmp	r4, r1
 800440a:	d1f6      	bne.n	80043fa <memchr+0x6>
 800440c:	4618      	mov	r0, r3
 800440e:	bd10      	pop	{r4, pc}

08004410 <memmove>:
 8004410:	4288      	cmp	r0, r1
 8004412:	b510      	push	{r4, lr}
 8004414:	eb01 0302 	add.w	r3, r1, r2
 8004418:	d807      	bhi.n	800442a <memmove+0x1a>
 800441a:	1e42      	subs	r2, r0, #1
 800441c:	4299      	cmp	r1, r3
 800441e:	d00a      	beq.n	8004436 <memmove+0x26>
 8004420:	f811 4b01 	ldrb.w	r4, [r1], #1
 8004424:	f802 4f01 	strb.w	r4, [r2, #1]!
 8004428:	e7f8      	b.n	800441c <memmove+0xc>
 800442a:	4283      	cmp	r3, r0
 800442c:	d9f5      	bls.n	800441a <memmove+0xa>
 800442e:	1881      	adds	r1, r0, r2
 8004430:	1ad2      	subs	r2, r2, r3
 8004432:	42d3      	cmn	r3, r2
 8004434:	d100      	bne.n	8004438 <memmove+0x28>
 8004436:	bd10      	pop	{r4, pc}
 8004438:	f813 4d01 	ldrb.w	r4, [r3, #-1]!
 800443c:	f801 4d01 	strb.w	r4, [r1, #-1]!
 8004440:	e7f7      	b.n	8004432 <memmove+0x22>

08004442 <__malloc_lock>:
 8004442:	4770      	bx	lr

08004444 <__malloc_unlock>:
 8004444:	4770      	bx	lr

08004446 <_realloc_r>:
 8004446:	b5f8      	push	{r3, r4, r5, r6, r7, lr}
 8004448:	4607      	mov	r7, r0
 800444a:	4614      	mov	r4, r2
 800444c:	460e      	mov	r6, r1
 800444e:	b921      	cbnz	r1, 800445a <_realloc_r+0x14>
 8004450:	e8bd 40f8 	ldmia.w	sp!, {r3, r4, r5, r6, r7, lr}
 8004454:	4611      	mov	r1, r2
 8004456:	f7fe bfe1 	b.w	800341c <_malloc_r>
 800445a:	b922      	cbnz	r2, 8004466 <_realloc_r+0x20>
 800445c:	f7fe ff92 	bl	8003384 <_free_r>
 8004460:	4625      	mov	r5, r4
 8004462:	4628      	mov	r0, r5
 8004464:	bdf8      	pop	{r3, r4, r5, r6, r7, pc}
 8004466:	f000 f821 	bl	80044ac <_malloc_usable_size_r>
 800446a:	42a0      	cmp	r0, r4
 800446c:	d20f      	bcs.n	800448e <_realloc_r+0x48>
 800446e:	4621      	mov	r1, r4
 8004470:	4638      	mov	r0, r7
 8004472:	f7fe ffd3 	bl	800341c <_malloc_r>
 8004476:	4605      	mov	r5, r0
 8004478:	2800      	cmp	r0, #0
 800447a:	d0f2      	beq.n	8004462 <_realloc_r+0x1c>
 800447c:	4631      	mov	r1, r6
 800447e:	4622      	mov	r2, r4
 8004480:	f7fe fe94 	bl	80031ac <memcpy>
 8004484:	4631      	mov	r1, r6
 8004486:	4638      	mov	r0, r7
 8004488:	f7fe ff7c 	bl	8003384 <_free_r>
 800448c:	e7e9      	b.n	8004462 <_realloc_r+0x1c>
 800448e:	4635      	mov	r5, r6
 8004490:	e7e7      	b.n	8004462 <_realloc_r+0x1c>

08004492 <__ascii_wctomb>:
 8004492:	b149      	cbz	r1, 80044a8 <__ascii_wctomb+0x16>
 8004494:	2aff      	cmp	r2, #255	; 0xff
 8004496:	bf8b      	itete	hi
 8004498:	238a      	movhi	r3, #138	; 0x8a
 800449a:	700a      	strbls	r2, [r1, #0]
 800449c:	6003      	strhi	r3, [r0, #0]
 800449e:	2001      	movls	r0, #1
 80044a0:	bf88      	it	hi
 80044a2:	f04f 30ff 	movhi.w	r0, #4294967295	; 0xffffffff
 80044a6:	4770      	bx	lr
 80044a8:	4608      	mov	r0, r1
 80044aa:	4770      	bx	lr

080044ac <_malloc_usable_size_r>:
 80044ac:	f851 3c04 	ldr.w	r3, [r1, #-4]
 80044b0:	1f18      	subs	r0, r3, #4
 80044b2:	2b00      	cmp	r3, #0
 80044b4:	bfbc      	itt	lt
 80044b6:	580b      	ldrlt	r3, [r1, r0]
 80044b8:	18c0      	addlt	r0, r0, r3
 80044ba:	4770      	bx	lr

080044bc <_init>:
 80044bc:	b5f8      	push	{r3, r4, r5, r6, r7, lr}
 80044be:	bf00      	nop
 80044c0:	bcf8      	pop	{r3, r4, r5, r6, r7}
 80044c2:	bc08      	pop	{r3}
 80044c4:	469e      	mov	lr, r3
 80044c6:	4770      	bx	lr

080044c8 <_fini>:
 80044c8:	b5f8      	push	{r3, r4, r5, r6, r7, lr}
 80044ca:	bf00      	nop
 80044cc:	bcf8      	pop	{r3, r4, r5, r6, r7}
 80044ce:	bc08      	pop	{r3}
 80044d0:	469e      	mov	lr, r3
 80044d2:	4770      	bx	lr
